os.(*File).close STEXT dupok nosplit size=28 args=0x18 locals=0x0
	0x0000 00000 (<autogenerated>:1)	TEXT	os.(*File).close(SB), DUPOK|NOSPLIT|ABIInternal, $0-24
	0x0000 00000 (<autogenerated>:1)	FUNCDATA	$0, gclocals·e6397a44f8e1b6e77d0f200b4fba5269(SB)
	0x0000 00000 (<autogenerated>:1)	FUNCDATA	$1, gclocals·69c1753bd5f81501d95132d08af04464(SB)
	0x0000 00000 (<autogenerated>:1)	FUNCDATA	$2, gclocals·9fb7f0986f647f17cb53dda1484e0f7a(SB)
	0x0000 00000 (<autogenerated>:1)	PCDATA	$0, $0
	0x0000 00000 (<autogenerated>:1)	PCDATA	$1, $0
	0x0000 00000 (<autogenerated>:1)	XORPS	X0, X0
	0x0003 00003 (<autogenerated>:1)	MOVUPS	X0, "".~r0+16(SP)
	0x0008 00008 (<autogenerated>:1)	PCDATA	$0, $1
	0x0008 00008 (<autogenerated>:1)	PCDATA	$1, $1
	0x0008 00008 (<autogenerated>:1)	MOVQ	""..this+8(SP), AX
	0x000d 00013 (<autogenerated>:1)	TESTB	AL, (AX)
	0x000f 00015 (<autogenerated>:1)	MOVQ	(AX), AX
	0x0012 00018 (<autogenerated>:1)	PCDATA	$0, $0
	0x0012 00018 (<autogenerated>:1)	PCDATA	$1, $0
	0x0012 00018 (<autogenerated>:1)	MOVQ	AX, ""..this+8(SP)
	0x0017 00023 (<autogenerated>:1)	JMP	os.(*file).close(SB)
	0x0000 0f 57 c0 0f 11 44 24 10 48 8b 44 24 08 84 00 48  .W...D$.H.D$...H
	0x0010 8b 00 48 89 44 24 08 e9 00 00 00 00              ..H.D$......
	rel 24+4 t=8 os.(*file).close+0
"".T.M1 STEXT nosplit size=1 args=0x18 locals=0x0
	0x0000 00000 (interface-internal-4.go:10)	TEXT	"".T.M1(SB), NOSPLIT|ABIInternal, $0-24
	0x0000 00000 (interface-internal-4.go:10)	FUNCDATA	$0, gclocals·33cdeccccebe80329f1fdbee7f5874cb(SB)
	0x0000 00000 (interface-internal-4.go:10)	FUNCDATA	$1, gclocals·33cdeccccebe80329f1fdbee7f5874cb(SB)
	0x0000 00000 (interface-internal-4.go:10)	FUNCDATA	$2, gclocals·33cdeccccebe80329f1fdbee7f5874cb(SB)
	0x0000 00000 (interface-internal-4.go:10)	RET
	0x0000 c3                                               .
"".T.M2 STEXT nosplit size=1 args=0x18 locals=0x0
	0x0000 00000 (interface-internal-4.go:11)	TEXT	"".T.M2(SB), NOSPLIT|ABIInternal, $0-24
	0x0000 00000 (interface-internal-4.go:11)	FUNCDATA	$0, gclocals·33cdeccccebe80329f1fdbee7f5874cb(SB)
	0x0000 00000 (interface-internal-4.go:11)	FUNCDATA	$1, gclocals·33cdeccccebe80329f1fdbee7f5874cb(SB)
	0x0000 00000 (interface-internal-4.go:11)	FUNCDATA	$2, gclocals·33cdeccccebe80329f1fdbee7f5874cb(SB)
	0x0000 00000 (interface-internal-4.go:11)	RET
	0x0000 c3                                               .
"".main STEXT size=1179 args=0x0 locals=0x1b8
	0x0000 00000 (interface-internal-4.go:18)	TEXT	"".main(SB), ABIInternal, $440-0
	0x0000 00000 (interface-internal-4.go:18)	MOVQ	(TLS), CX
	0x0009 00009 (interface-internal-4.go:18)	LEAQ	-312(SP), AX
	0x0011 00017 (interface-internal-4.go:18)	CMPQ	AX, 16(CX)
	0x0015 00021 (interface-internal-4.go:18)	JLS	1169
	0x001b 00027 (interface-internal-4.go:18)	SUBQ	$440, SP
	0x0022 00034 (interface-internal-4.go:18)	MOVQ	BP, 432(SP)
	0x002a 00042 (interface-internal-4.go:18)	LEAQ	432(SP), BP
	0x0032 00050 (interface-internal-4.go:18)	FUNCDATA	$0, gclocals·37e3ce3d615de95c262e59007e62bb24(SB)
	0x0032 00050 (interface-internal-4.go:18)	FUNCDATA	$1, gclocals·e2139616e8086a28de836d1bb0eabe93(SB)
	0x0032 00050 (interface-internal-4.go:18)	FUNCDATA	$2, gclocals·22b1b73b5ba8d4626c2b7611dc91223b(SB)
	0x0032 00050 (interface-internal-4.go:18)	FUNCDATA	$3, "".main.stkobj(SB)
	0x0032 00050 (interface-internal-4.go:19)	PCDATA	$0, $0
	0x0032 00050 (interface-internal-4.go:19)	PCDATA	$1, $1
	0x0032 00050 (interface-internal-4.go:19)	XORPS	X0, X0
	0x0035 00053 (interface-internal-4.go:19)	MOVUPS	X0, "".t+336(SP)
	0x003d 00061 (interface-internal-4.go:19)	MOVQ	$0, "".t+352(SP)
	0x0049 00073 (interface-internal-4.go:20)	MOVQ	$17, "".t+336(SP)
	0x0055 00085 (interface-internal-4.go:21)	PCDATA	$0, $1
	0x0055 00085 (interface-internal-4.go:21)	LEAQ	go.string."hello, interface"(SB), AX
	0x005c 00092 (interface-internal-4.go:21)	PCDATA	$0, $0
	0x005c 00092 (interface-internal-4.go:21)	MOVQ	AX, "".t+344(SP)
	0x0064 00100 (interface-internal-4.go:21)	MOVQ	$16, "".t+352(SP)
	0x0070 00112 (interface-internal-4.go:23)	XORPS	X0, X0
	0x0073 00115 (interface-internal-4.go:23)	MOVUPS	X0, "".ei+208(SP)
	0x007b 00123 (interface-internal-4.go:24)	MOVQ	"".t+352(SP), AX
	0x0083 00131 (interface-internal-4.go:24)	PCDATA	$0, $2
	0x0083 00131 (interface-internal-4.go:24)	MOVQ	"".t+344(SP), CX
	0x008b 00139 (interface-internal-4.go:24)	MOVQ	"".t+336(SP), DX
	0x0093 00147 (interface-internal-4.go:24)	PCDATA	$1, $2
	0x0093 00147 (interface-internal-4.go:24)	MOVQ	DX, ""..autotmp_15+408(SP)
	0x009b 00155 (interface-internal-4.go:24)	PCDATA	$0, $0
	0x009b 00155 (interface-internal-4.go:24)	MOVQ	CX, ""..autotmp_15+416(SP)
	0x00a3 00163 (interface-internal-4.go:24)	MOVQ	AX, ""..autotmp_15+424(SP)
	0x00ab 00171 (interface-internal-4.go:24)	PCDATA	$0, $1
	0x00ab 00171 (interface-internal-4.go:24)	LEAQ	type."".T(SB), AX
	0x00b2 00178 (interface-internal-4.go:24)	PCDATA	$0, $0
	0x00b2 00178 (interface-internal-4.go:24)	MOVQ	AX, (SP)
	0x00b6 00182 (interface-internal-4.go:24)	PCDATA	$0, $1
	0x00b6 00182 (interface-internal-4.go:24)	PCDATA	$1, $1
	0x00b6 00182 (interface-internal-4.go:24)	LEAQ	""..autotmp_15+408(SP), AX
	0x00be 00190 (interface-internal-4.go:24)	PCDATA	$0, $0
	0x00be 00190 (interface-internal-4.go:24)	MOVQ	AX, 8(SP)
	0x00c3 00195 (interface-internal-4.go:24)	CALL	runtime.convT2E(SB)
	0x00c8 00200 (interface-internal-4.go:24)	PCDATA	$0, $1
	0x00c8 00200 (interface-internal-4.go:24)	MOVQ	24(SP), AX
	0x00cd 00205 (interface-internal-4.go:24)	MOVQ	16(SP), CX
	0x00d2 00210 (interface-internal-4.go:24)	PCDATA	$1, $3
	0x00d2 00210 (interface-internal-4.go:24)	MOVQ	CX, "".ei+208(SP)
	0x00da 00218 (interface-internal-4.go:24)	PCDATA	$0, $0
	0x00da 00218 (interface-internal-4.go:24)	MOVQ	AX, "".ei+216(SP)
	0x00e2 00226 (interface-internal-4.go:26)	XORPS	X0, X0
	0x00e5 00229 (interface-internal-4.go:26)	MOVUPS	X0, "".i+160(SP)
	0x00ed 00237 (interface-internal-4.go:27)	MOVQ	"".t+352(SP), AX
	0x00f5 00245 (interface-internal-4.go:27)	PCDATA	$0, $2
	0x00f5 00245 (interface-internal-4.go:27)	MOVQ	"".t+344(SP), CX
	0x00fd 00253 (interface-internal-4.go:27)	PCDATA	$1, $4
	0x00fd 00253 (interface-internal-4.go:27)	MOVQ	"".t+336(SP), DX
	0x0105 00261 (interface-internal-4.go:27)	PCDATA	$1, $5
	0x0105 00261 (interface-internal-4.go:27)	MOVQ	DX, ""..autotmp_15+408(SP)
	0x010d 00269 (interface-internal-4.go:27)	PCDATA	$0, $0
	0x010d 00269 (interface-internal-4.go:27)	MOVQ	CX, ""..autotmp_15+416(SP)
	0x0115 00277 (interface-internal-4.go:27)	MOVQ	AX, ""..autotmp_15+424(SP)
	0x011d 00285 (interface-internal-4.go:27)	PCDATA	$0, $1
	0x011d 00285 (interface-internal-4.go:27)	LEAQ	go.itab."".T,"".NonEmptyInterface(SB), AX
	0x0124 00292 (interface-internal-4.go:27)	PCDATA	$0, $0
	0x0124 00292 (interface-internal-4.go:27)	MOVQ	AX, (SP)
	0x0128 00296 (interface-internal-4.go:27)	PCDATA	$0, $1
	0x0128 00296 (interface-internal-4.go:27)	PCDATA	$1, $4
	0x0128 00296 (interface-internal-4.go:27)	LEAQ	""..autotmp_15+408(SP), AX
	0x0130 00304 (interface-internal-4.go:27)	PCDATA	$0, $0
	0x0130 00304 (interface-internal-4.go:27)	MOVQ	AX, 8(SP)
	0x0135 00309 (interface-internal-4.go:27)	CALL	runtime.convT2I(SB)
	0x013a 00314 (interface-internal-4.go:27)	PCDATA	$0, $1
	0x013a 00314 (interface-internal-4.go:27)	MOVQ	24(SP), AX
	0x013f 00319 (interface-internal-4.go:27)	MOVQ	16(SP), CX
	0x0144 00324 (interface-internal-4.go:27)	PCDATA	$1, $6
	0x0144 00324 (interface-internal-4.go:27)	MOVQ	CX, "".i+160(SP)
	0x014c 00332 (interface-internal-4.go:27)	PCDATA	$0, $0
	0x014c 00332 (interface-internal-4.go:27)	MOVQ	AX, "".i+168(SP)
	0x0154 00340 (interface-internal-4.go:28)	PCDATA	$0, $1
	0x0154 00340 (interface-internal-4.go:28)	MOVQ	"".ei+216(SP), AX
	0x015c 00348 (interface-internal-4.go:28)	PCDATA	$1, $7
	0x015c 00348 (interface-internal-4.go:28)	MOVQ	"".ei+208(SP), CX
	0x0164 00356 (interface-internal-4.go:28)	PCDATA	$1, $8
	0x0164 00356 (interface-internal-4.go:28)	MOVQ	CX, "".~arg0+128(SP)
	0x016c 00364 (interface-internal-4.go:28)	PCDATA	$0, $0
	0x016c 00364 (interface-internal-4.go:28)	MOVQ	AX, "".~arg0+136(SP)
	0x0174 00372 (interface-internal-4.go:28)	PCDATA	$1, $9
	0x0174 00372 (interface-internal-4.go:28)	XORPS	X0, X0
	0x0177 00375 (interface-internal-4.go:28)	MOVUPS	X0, ""..autotmp_20+304(SP)
	0x017f 00383 (interface-internal-4.go:28)	PCDATA	$0, $1
	0x017f 00383 (interface-internal-4.go:28)	PCDATA	$1, $8
	0x017f 00383 (interface-internal-4.go:28)	LEAQ	""..autotmp_20+304(SP), AX
	0x0187 00391 (interface-internal-4.go:28)	MOVQ	AX, ""..autotmp_18+120(SP)
	0x018c 00396 (interface-internal-4.go:28)	TESTB	AL, (AX)
	0x018e 00398 (interface-internal-4.go:28)	PCDATA	$0, $3
	0x018e 00398 (interface-internal-4.go:28)	MOVQ	"".~arg0+136(SP), CX
	0x0196 00406 (interface-internal-4.go:28)	PCDATA	$1, $7
	0x0196 00406 (interface-internal-4.go:28)	MOVQ	"".~arg0+128(SP), DX
	0x019e 00414 (interface-internal-4.go:28)	MOVQ	DX, ""..autotmp_20+304(SP)
	0x01a6 00422 (interface-internal-4.go:28)	PCDATA	$0, $1
	0x01a6 00422 (interface-internal-4.go:28)	MOVQ	CX, ""..autotmp_20+312(SP)
	0x01ae 00430 (interface-internal-4.go:28)	TESTB	AL, (AX)
	0x01b0 00432 (interface-internal-4.go:28)	JMP	434
	0x01b2 00434 (interface-internal-4.go:28)	PCDATA	$0, $0
	0x01b2 00434 (interface-internal-4.go:28)	PCDATA	$1, $10
	0x01b2 00434 (interface-internal-4.go:28)	MOVQ	AX, fmt.a+384(SP)
	0x01ba 00442 (interface-internal-4.go:28)	MOVQ	$1, fmt.a+392(SP)
	0x01c6 00454 (interface-internal-4.go:28)	MOVQ	$1, fmt.a+400(SP)
	0x01d2 00466 (interface-internal-4.go:28)	MOVQ	$0, fmt.n+64(SP)
	0x01db 00475 (interface-internal-4.go:28)	XORPS	X0, X0
	0x01de 00478 (interface-internal-4.go:28)	MOVUPS	X0, fmt.err+192(SP)
	0x01e6 00486 (<unknown line number>)	NOP
	0x01e6 00486 (interface-internal-4.go:28)	MOVQ	$0, fmt..autotmp_3+80(SP)
	0x01ef 00495 (interface-internal-4.go:28)	XORPS	X0, X0
	0x01f2 00498 (interface-internal-4.go:28)	MOVUPS	X0, fmt..autotmp_4+240(SP)
	0x01fa 00506 ($GOROOT/src/fmt/print.go:274)	XORPS	X0, X0
	0x01fd 00509 ($GOROOT/src/fmt/print.go:274)	MOVUPS	X0, ""..autotmp_17+320(SP)
	0x0205 00517 ($GOROOT/src/fmt/print.go:274)	PCDATA	$0, $1
	0x0205 00517 ($GOROOT/src/fmt/print.go:274)	MOVQ	os.Stdout(SB), AX
	0x020c 00524 ($GOROOT/src/fmt/print.go:274)	PCDATA	$0, $3
	0x020c 00524 ($GOROOT/src/fmt/print.go:274)	LEAQ	go.itab.*os.File,io.Writer(SB), CX
	0x0213 00531 ($GOROOT/src/fmt/print.go:274)	PCDATA	$0, $1
	0x0213 00531 ($GOROOT/src/fmt/print.go:274)	MOVQ	CX, (SP)
	0x0217 00535 ($GOROOT/src/fmt/print.go:274)	PCDATA	$0, $0
	0x0217 00535 ($GOROOT/src/fmt/print.go:274)	MOVQ	AX, 8(SP)
	0x021c 00540 ($GOROOT/src/fmt/print.go:274)	PCDATA	$0, $1
	0x021c 00540 ($GOROOT/src/fmt/print.go:274)	MOVQ	fmt.a+384(SP), AX
	0x0224 00548 ($GOROOT/src/fmt/print.go:274)	MOVQ	fmt.a+392(SP), CX
	0x022c 00556 ($GOROOT/src/fmt/print.go:274)	PCDATA	$1, $7
	0x022c 00556 ($GOROOT/src/fmt/print.go:274)	MOVQ	fmt.a+400(SP), DX
	0x0234 00564 ($GOROOT/src/fmt/print.go:274)	PCDATA	$0, $0
	0x0234 00564 ($GOROOT/src/fmt/print.go:274)	MOVQ	AX, 16(SP)
	0x0239 00569 ($GOROOT/src/fmt/print.go:274)	MOVQ	CX, 24(SP)
	0x023e 00574 ($GOROOT/src/fmt/print.go:274)	MOVQ	DX, 32(SP)
	0x0243 00579 ($GOROOT/src/fmt/print.go:274)	CALL	fmt.Fprintln(SB)
	0x0248 00584 ($GOROOT/src/fmt/print.go:274)	MOVQ	40(SP), AX
	0x024d 00589 ($GOROOT/src/fmt/print.go:274)	MOVQ	AX, ""..autotmp_16+96(SP)
	0x0252 00594 ($GOROOT/src/fmt/print.go:274)	MOVQ	48(SP), AX
	0x0257 00599 ($GOROOT/src/fmt/print.go:274)	PCDATA	$0, $2
	0x0257 00599 ($GOROOT/src/fmt/print.go:274)	MOVQ	56(SP), CX
	0x025c 00604 ($GOROOT/src/fmt/print.go:274)	PCDATA	$1, $11
	0x025c 00604 ($GOROOT/src/fmt/print.go:274)	MOVQ	AX, ""..autotmp_17+320(SP)
	0x0264 00612 ($GOROOT/src/fmt/print.go:274)	PCDATA	$0, $0
	0x0264 00612 ($GOROOT/src/fmt/print.go:274)	MOVQ	CX, ""..autotmp_17+328(SP)
	0x026c 00620 ($GOROOT/src/fmt/print.go:274)	MOVQ	""..autotmp_16+96(SP), AX
	0x0271 00625 ($GOROOT/src/fmt/print.go:274)	MOVQ	AX, fmt..autotmp_3+80(SP)
	0x0276 00630 ($GOROOT/src/fmt/print.go:274)	MOVQ	""..autotmp_17+320(SP), AX
	0x027e 00638 ($GOROOT/src/fmt/print.go:274)	PCDATA	$0, $2
	0x027e 00638 ($GOROOT/src/fmt/print.go:274)	PCDATA	$1, $7
	0x027e 00638 ($GOROOT/src/fmt/print.go:274)	MOVQ	""..autotmp_17+328(SP), CX
	0x0286 00646 ($GOROOT/src/fmt/print.go:274)	PCDATA	$1, $12
	0x0286 00646 ($GOROOT/src/fmt/print.go:274)	MOVQ	AX, fmt..autotmp_4+240(SP)
	0x028e 00654 ($GOROOT/src/fmt/print.go:274)	PCDATA	$0, $0
	0x028e 00654 ($GOROOT/src/fmt/print.go:274)	MOVQ	CX, fmt..autotmp_4+248(SP)
	0x0296 00662 (interface-internal-4.go:28)	MOVQ	fmt..autotmp_3+80(SP), AX
	0x029b 00667 (interface-internal-4.go:28)	MOVQ	AX, fmt.n+64(SP)
	0x02a0 00672 (interface-internal-4.go:28)	MOVQ	fmt..autotmp_4+240(SP), AX
	0x02a8 00680 (interface-internal-4.go:28)	PCDATA	$0, $2
	0x02a8 00680 (interface-internal-4.go:28)	PCDATA	$1, $7
	0x02a8 00680 (interface-internal-4.go:28)	MOVQ	fmt..autotmp_4+248(SP), CX
	0x02b0 00688 (interface-internal-4.go:28)	MOVQ	AX, fmt.err+192(SP)
	0x02b8 00696 (interface-internal-4.go:28)	PCDATA	$0, $0
	0x02b8 00696 (interface-internal-4.go:28)	MOVQ	CX, fmt.err+200(SP)
	0x02c0 00704 (interface-internal-4.go:28)	JMP	706
	0x02c2 00706 (interface-internal-4.go:29)	MOVQ	"".i+160(SP), AX
	0x02ca 00714 (interface-internal-4.go:29)	PCDATA	$0, $2
	0x02ca 00714 (interface-internal-4.go:29)	PCDATA	$1, $0
	0x02ca 00714 (interface-internal-4.go:29)	MOVQ	"".i+168(SP), CX
	0x02d2 00722 (interface-internal-4.go:29)	PCDATA	$1, $13
	0x02d2 00722 (interface-internal-4.go:29)	MOVQ	AX, ""..autotmp_22+272(SP)
	0x02da 00730 (interface-internal-4.go:29)	PCDATA	$0, $0
	0x02da 00730 (interface-internal-4.go:29)	MOVQ	CX, ""..autotmp_22+280(SP)
	0x02e2 00738 (interface-internal-4.go:29)	PCDATA	$1, $14
	0x02e2 00738 (interface-internal-4.go:29)	MOVQ	AX, ""..autotmp_23+112(SP)
	0x02e7 00743 (interface-internal-4.go:29)	CMPQ	""..autotmp_23+112(SP), $0
	0x02ed 00749 (interface-internal-4.go:29)	JNE	756
	0x02ef 00751 (interface-internal-4.go:29)	JMP	1164
	0x02f4 00756 (interface-internal-4.go:29)	PCDATA	$1, $13
	0x02f4 00756 (interface-internal-4.go:29)	TESTB	AL, (AX)
	0x02f6 00758 (interface-internal-4.go:29)	PCDATA	$0, $1
	0x02f6 00758 (interface-internal-4.go:29)	MOVQ	8(AX), AX
	0x02fa 00762 (interface-internal-4.go:29)	PCDATA	$0, $0
	0x02fa 00762 (interface-internal-4.go:29)	PCDATA	$1, $14
	0x02fa 00762 (interface-internal-4.go:29)	MOVQ	AX, ""..autotmp_23+112(SP)
	0x02ff 00767 (interface-internal-4.go:29)	JMP	769
	0x0301 00769 (interface-internal-4.go:29)	PCDATA	$0, $1
	0x0301 00769 (interface-internal-4.go:29)	PCDATA	$1, $13
	0x0301 00769 (interface-internal-4.go:29)	MOVQ	""..autotmp_23+112(SP), AX
	0x0306 00774 (interface-internal-4.go:29)	PCDATA	$0, $3
	0x0306 00774 (interface-internal-4.go:29)	PCDATA	$1, $0
	0x0306 00774 (interface-internal-4.go:29)	MOVQ	""..autotmp_22+280(SP), CX
	0x030e 00782 (interface-internal-4.go:29)	MOVQ	AX, ""..autotmp_21+288(SP)
	0x0316 00790 (interface-internal-4.go:29)	MOVQ	CX, ""..autotmp_21+296(SP)
	0x031e 00798 (interface-internal-4.go:29)	PCDATA	$0, $2
	0x031e 00798 (interface-internal-4.go:29)	PCDATA	$1, $15
	0x031e 00798 (interface-internal-4.go:29)	MOVQ	AX, "".~arg0+144(SP)
	0x0326 00806 (interface-internal-4.go:29)	PCDATA	$0, $0
	0x0326 00806 (interface-internal-4.go:29)	MOVQ	CX, "".~arg0+152(SP)
	0x032e 00814 (interface-internal-4.go:29)	PCDATA	$1, $16
	0x032e 00814 (interface-internal-4.go:29)	XORPS	X0, X0
	0x0331 00817 (interface-internal-4.go:29)	MOVUPS	X0, ""..autotmp_26+256(SP)
	0x0339 00825 (interface-internal-4.go:29)	PCDATA	$0, $1
	0x0339 00825 (interface-internal-4.go:29)	PCDATA	$1, $15
	0x0339 00825 (interface-internal-4.go:29)	LEAQ	""..autotmp_26+256(SP), AX
	0x0341 00833 (interface-internal-4.go:29)	MOVQ	AX, ""..autotmp_24+104(SP)
	0x0346 00838 (interface-internal-4.go:29)	TESTB	AL, (AX)
	0x0348 00840 (interface-internal-4.go:29)	MOVQ	"".~arg0+144(SP), CX
	0x0350 00848 (interface-internal-4.go:29)	PCDATA	$0, $4
	0x0350 00848 (interface-internal-4.go:29)	PCDATA	$1, $0
	0x0350 00848 (interface-internal-4.go:29)	MOVQ	"".~arg0+152(SP), DX
	0x0358 00856 (interface-internal-4.go:29)	MOVQ	CX, ""..autotmp_26+256(SP)
	0x0360 00864 (interface-internal-4.go:29)	PCDATA	$0, $1
	0x0360 00864 (interface-internal-4.go:29)	MOVQ	DX, ""..autotmp_26+264(SP)
	0x0368 00872 (interface-internal-4.go:29)	TESTB	AL, (AX)
	0x036a 00874 (interface-internal-4.go:29)	JMP	876
	0x036c 00876 (interface-internal-4.go:29)	PCDATA	$0, $0
	0x036c 00876 (interface-internal-4.go:29)	PCDATA	$1, $17
	0x036c 00876 (interface-internal-4.go:29)	MOVQ	AX, fmt.a+360(SP)
	0x0374 00884 (interface-internal-4.go:29)	MOVQ	$1, fmt.a+368(SP)
	0x0380 00896 (interface-internal-4.go:29)	MOVQ	$1, fmt.a+376(SP)
	0x038c 00908 (interface-internal-4.go:29)	MOVQ	$0, fmt.n+72(SP)
	0x0395 00917 (interface-internal-4.go:29)	XORPS	X0, X0
	0x0398 00920 (interface-internal-4.go:29)	MOVUPS	X0, fmt.err+176(SP)
	0x03a0 00928 (<unknown line number>)	NOP
	0x03a0 00928 (interface-internal-4.go:28)	MOVQ	$0, fmt..autotmp_3+88(SP)
	0x03a9 00937 (interface-internal-4.go:28)	XORPS	X0, X0
	0x03ac 00940 (interface-internal-4.go:28)	MOVUPS	X0, fmt..autotmp_4+224(SP)
	0x03b4 00948 ($GOROOT/src/fmt/print.go:274)	XORPS	X0, X0
	0x03b7 00951 ($GOROOT/src/fmt/print.go:274)	MOVUPS	X0, ""..autotmp_17+320(SP)
	0x03bf 00959 ($GOROOT/src/fmt/print.go:274)	PCDATA	$0, $1
	0x03bf 00959 ($GOROOT/src/fmt/print.go:274)	MOVQ	os.Stdout(SB), AX
	0x03c6 00966 ($GOROOT/src/fmt/print.go:274)	PCDATA	$0, $3
	0x03c6 00966 ($GOROOT/src/fmt/print.go:274)	LEAQ	go.itab.*os.File,io.Writer(SB), CX
	0x03cd 00973 ($GOROOT/src/fmt/print.go:274)	PCDATA	$0, $1
	0x03cd 00973 ($GOROOT/src/fmt/print.go:274)	MOVQ	CX, (SP)
	0x03d1 00977 ($GOROOT/src/fmt/print.go:274)	PCDATA	$0, $0
	0x03d1 00977 ($GOROOT/src/fmt/print.go:274)	MOVQ	AX, 8(SP)
	0x03d6 00982 ($GOROOT/src/fmt/print.go:274)	PCDATA	$0, $1
	0x03d6 00982 ($GOROOT/src/fmt/print.go:274)	MOVQ	fmt.a+360(SP), AX
	0x03de 00990 ($GOROOT/src/fmt/print.go:274)	MOVQ	fmt.a+368(SP), CX
	0x03e6 00998 ($GOROOT/src/fmt/print.go:274)	PCDATA	$1, $0
	0x03e6 00998 ($GOROOT/src/fmt/print.go:274)	MOVQ	fmt.a+376(SP), DX
	0x03ee 01006 ($GOROOT/src/fmt/print.go:274)	PCDATA	$0, $0
	0x03ee 01006 ($GOROOT/src/fmt/print.go:274)	MOVQ	AX, 16(SP)
	0x03f3 01011 ($GOROOT/src/fmt/print.go:274)	MOVQ	CX, 24(SP)
	0x03f8 01016 ($GOROOT/src/fmt/print.go:274)	MOVQ	DX, 32(SP)
	0x03fd 01021 ($GOROOT/src/fmt/print.go:274)	CALL	fmt.Fprintln(SB)
	0x0402 01026 ($GOROOT/src/fmt/print.go:274)	MOVQ	40(SP), AX
	0x0407 01031 ($GOROOT/src/fmt/print.go:274)	MOVQ	AX, ""..autotmp_16+96(SP)
	0x040c 01036 ($GOROOT/src/fmt/print.go:274)	MOVQ	48(SP), AX
	0x0411 01041 ($GOROOT/src/fmt/print.go:274)	PCDATA	$0, $2
	0x0411 01041 ($GOROOT/src/fmt/print.go:274)	MOVQ	56(SP), CX
	0x0416 01046 ($GOROOT/src/fmt/print.go:274)	PCDATA	$1, $18
	0x0416 01046 ($GOROOT/src/fmt/print.go:274)	MOVQ	AX, ""..autotmp_17+320(SP)
	0x041e 01054 ($GOROOT/src/fmt/print.go:274)	PCDATA	$0, $0
	0x041e 01054 ($GOROOT/src/fmt/print.go:274)	MOVQ	CX, ""..autotmp_17+328(SP)
	0x0426 01062 ($GOROOT/src/fmt/print.go:274)	MOVQ	""..autotmp_16+96(SP), AX
	0x042b 01067 ($GOROOT/src/fmt/print.go:274)	MOVQ	AX, fmt..autotmp_3+88(SP)
	0x0430 01072 ($GOROOT/src/fmt/print.go:274)	MOVQ	""..autotmp_17+320(SP), AX
	0x0438 01080 ($GOROOT/src/fmt/print.go:274)	PCDATA	$0, $2
	0x0438 01080 ($GOROOT/src/fmt/print.go:274)	PCDATA	$1, $0
	0x0438 01080 ($GOROOT/src/fmt/print.go:274)	MOVQ	""..autotmp_17+328(SP), CX
	0x0440 01088 ($GOROOT/src/fmt/print.go:274)	PCDATA	$1, $19
	0x0440 01088 ($GOROOT/src/fmt/print.go:274)	MOVQ	AX, fmt..autotmp_4+224(SP)
	0x0448 01096 ($GOROOT/src/fmt/print.go:274)	PCDATA	$0, $0
	0x0448 01096 ($GOROOT/src/fmt/print.go:274)	MOVQ	CX, fmt..autotmp_4+232(SP)
	0x0450 01104 (interface-internal-4.go:29)	MOVQ	fmt..autotmp_3+88(SP), AX
	0x0455 01109 (interface-internal-4.go:29)	MOVQ	AX, fmt.n+72(SP)
	0x045a 01114 (interface-internal-4.go:29)	MOVQ	fmt..autotmp_4+224(SP), AX
	0x0462 01122 (interface-internal-4.go:29)	PCDATA	$0, $2
	0x0462 01122 (interface-internal-4.go:29)	PCDATA	$1, $0
	0x0462 01122 (interface-internal-4.go:29)	MOVQ	fmt..autotmp_4+232(SP), CX
	0x046a 01130 (interface-internal-4.go:29)	MOVQ	AX, fmt.err+176(SP)
	0x0472 01138 (interface-internal-4.go:29)	PCDATA	$0, $0
	0x0472 01138 (interface-internal-4.go:29)	MOVQ	CX, fmt.err+184(SP)
	0x047a 01146 (interface-internal-4.go:29)	JMP	1148
	0x047c 01148 (<unknown line number>)	PCDATA	$0, $-2
	0x047c 01148 (<unknown line number>)	PCDATA	$1, $-2
	0x047c 01148 (<unknown line number>)	MOVQ	432(SP), BP
	0x0484 01156 (<unknown line number>)	ADDQ	$440, SP
	0x048b 01163 (<unknown line number>)	RET
	0x048c 01164 (interface-internal-4.go:29)	JMP	769
	0x0491 01169 (interface-internal-4.go:29)	NOP
	0x0491 01169 (interface-internal-4.go:18)	PCDATA	$1, $-1
	0x0491 01169 (interface-internal-4.go:18)	PCDATA	$0, $-1
	0x0491 01169 (interface-internal-4.go:18)	CALL	runtime.morestack_noctxt(SB)
	0x0496 01174 (interface-internal-4.go:18)	JMP	0
	0x0000 65 48 8b 0c 25 00 00 00 00 48 8d 84 24 c8 fe ff  eH..%....H..$...
	0x0010 ff 48 3b 41 10 0f 86 76 04 00 00 48 81 ec b8 01  .H;A...v...H....
	0x0020 00 00 48 89 ac 24 b0 01 00 00 48 8d ac 24 b0 01  ..H..$....H..$..
	0x0030 00 00 0f 57 c0 0f 11 84 24 50 01 00 00 48 c7 84  ...W....$P...H..
	0x0040 24 60 01 00 00 00 00 00 00 48 c7 84 24 50 01 00  $`.......H..$P..
	0x0050 00 11 00 00 00 48 8d 05 00 00 00 00 48 89 84 24  .....H......H..$
	0x0060 58 01 00 00 48 c7 84 24 60 01 00 00 10 00 00 00  X...H..$`.......
	0x0070 0f 57 c0 0f 11 84 24 d0 00 00 00 48 8b 84 24 60  .W....$....H..$`
	0x0080 01 00 00 48 8b 8c 24 58 01 00 00 48 8b 94 24 50  ...H..$X...H..$P
	0x0090 01 00 00 48 89 94 24 98 01 00 00 48 89 8c 24 a0  ...H..$....H..$.
	0x00a0 01 00 00 48 89 84 24 a8 01 00 00 48 8d 05 00 00  ...H..$....H....
	0x00b0 00 00 48 89 04 24 48 8d 84 24 98 01 00 00 48 89  ..H..$H..$....H.
	0x00c0 44 24 08 e8 00 00 00 00 48 8b 44 24 18 48 8b 4c  D$......H.D$.H.L
	0x00d0 24 10 48 89 8c 24 d0 00 00 00 48 89 84 24 d8 00  $.H..$....H..$..
	0x00e0 00 00 0f 57 c0 0f 11 84 24 a0 00 00 00 48 8b 84  ...W....$....H..
	0x00f0 24 60 01 00 00 48 8b 8c 24 58 01 00 00 48 8b 94  $`...H..$X...H..
	0x0100 24 50 01 00 00 48 89 94 24 98 01 00 00 48 89 8c  $P...H..$....H..
	0x0110 24 a0 01 00 00 48 89 84 24 a8 01 00 00 48 8d 05  $....H..$....H..
	0x0120 00 00 00 00 48 89 04 24 48 8d 84 24 98 01 00 00  ....H..$H..$....
	0x0130 48 89 44 24 08 e8 00 00 00 00 48 8b 44 24 18 48  H.D$......H.D$.H
	0x0140 8b 4c 24 10 48 89 8c 24 a0 00 00 00 48 89 84 24  .L$.H..$....H..$
	0x0150 a8 00 00 00 48 8b 84 24 d8 00 00 00 48 8b 8c 24  ....H..$....H..$
	0x0160 d0 00 00 00 48 89 8c 24 80 00 00 00 48 89 84 24  ....H..$....H..$
	0x0170 88 00 00 00 0f 57 c0 0f 11 84 24 30 01 00 00 48  .....W....$0...H
	0x0180 8d 84 24 30 01 00 00 48 89 44 24 78 84 00 48 8b  ..$0...H.D$x..H.
	0x0190 8c 24 88 00 00 00 48 8b 94 24 80 00 00 00 48 89  .$....H..$....H.
	0x01a0 94 24 30 01 00 00 48 89 8c 24 38 01 00 00 84 00  .$0...H..$8.....
	0x01b0 eb 00 48 89 84 24 80 01 00 00 48 c7 84 24 88 01  ..H..$....H..$..
	0x01c0 00 00 01 00 00 00 48 c7 84 24 90 01 00 00 01 00  ......H..$......
	0x01d0 00 00 48 c7 44 24 40 00 00 00 00 0f 57 c0 0f 11  ..H.D$@.....W...
	0x01e0 84 24 c0 00 00 00 48 c7 44 24 50 00 00 00 00 0f  .$....H.D$P.....
	0x01f0 57 c0 0f 11 84 24 f0 00 00 00 0f 57 c0 0f 11 84  W....$.....W....
	0x0200 24 40 01 00 00 48 8b 05 00 00 00 00 48 8d 0d 00  $@...H......H...
	0x0210 00 00 00 48 89 0c 24 48 89 44 24 08 48 8b 84 24  ...H..$H.D$.H..$
	0x0220 80 01 00 00 48 8b 8c 24 88 01 00 00 48 8b 94 24  ....H..$....H..$
	0x0230 90 01 00 00 48 89 44 24 10 48 89 4c 24 18 48 89  ....H.D$.H.L$.H.
	0x0240 54 24 20 e8 00 00 00 00 48 8b 44 24 28 48 89 44  T$ .....H.D$(H.D
	0x0250 24 60 48 8b 44 24 30 48 8b 4c 24 38 48 89 84 24  $`H.D$0H.L$8H..$
	0x0260 40 01 00 00 48 89 8c 24 48 01 00 00 48 8b 44 24  @...H..$H...H.D$
	0x0270 60 48 89 44 24 50 48 8b 84 24 40 01 00 00 48 8b  `H.D$PH..$@...H.
	0x0280 8c 24 48 01 00 00 48 89 84 24 f0 00 00 00 48 89  .$H...H..$....H.
	0x0290 8c 24 f8 00 00 00 48 8b 44 24 50 48 89 44 24 40  .$....H.D$PH.D$@
	0x02a0 48 8b 84 24 f0 00 00 00 48 8b 8c 24 f8 00 00 00  H..$....H..$....
	0x02b0 48 89 84 24 c0 00 00 00 48 89 8c 24 c8 00 00 00  H..$....H..$....
	0x02c0 eb 00 48 8b 84 24 a0 00 00 00 48 8b 8c 24 a8 00  ..H..$....H..$..
	0x02d0 00 00 48 89 84 24 10 01 00 00 48 89 8c 24 18 01  ..H..$....H..$..
	0x02e0 00 00 48 89 44 24 70 48 83 7c 24 70 00 75 05 e9  ..H.D$pH.|$p.u..
	0x02f0 98 01 00 00 84 00 48 8b 40 08 48 89 44 24 70 eb  ......H.@.H.D$p.
	0x0300 00 48 8b 44 24 70 48 8b 8c 24 18 01 00 00 48 89  .H.D$pH..$....H.
	0x0310 84 24 20 01 00 00 48 89 8c 24 28 01 00 00 48 89  .$ ...H..$(...H.
	0x0320 84 24 90 00 00 00 48 89 8c 24 98 00 00 00 0f 57  .$....H..$.....W
	0x0330 c0 0f 11 84 24 00 01 00 00 48 8d 84 24 00 01 00  ....$....H..$...
	0x0340 00 48 89 44 24 68 84 00 48 8b 8c 24 90 00 00 00  .H.D$h..H..$....
	0x0350 48 8b 94 24 98 00 00 00 48 89 8c 24 00 01 00 00  H..$....H..$....
	0x0360 48 89 94 24 08 01 00 00 84 00 eb 00 48 89 84 24  H..$........H..$
	0x0370 68 01 00 00 48 c7 84 24 70 01 00 00 01 00 00 00  h...H..$p.......
	0x0380 48 c7 84 24 78 01 00 00 01 00 00 00 48 c7 44 24  H..$x.......H.D$
	0x0390 48 00 00 00 00 0f 57 c0 0f 11 84 24 b0 00 00 00  H.....W....$....
	0x03a0 48 c7 44 24 58 00 00 00 00 0f 57 c0 0f 11 84 24  H.D$X.....W....$
	0x03b0 e0 00 00 00 0f 57 c0 0f 11 84 24 40 01 00 00 48  .....W....$@...H
	0x03c0 8b 05 00 00 00 00 48 8d 0d 00 00 00 00 48 89 0c  ......H......H..
	0x03d0 24 48 89 44 24 08 48 8b 84 24 68 01 00 00 48 8b  $H.D$.H..$h...H.
	0x03e0 8c 24 70 01 00 00 48 8b 94 24 78 01 00 00 48 89  .$p...H..$x...H.
	0x03f0 44 24 10 48 89 4c 24 18 48 89 54 24 20 e8 00 00  D$.H.L$.H.T$ ...
	0x0400 00 00 48 8b 44 24 28 48 89 44 24 60 48 8b 44 24  ..H.D$(H.D$`H.D$
	0x0410 30 48 8b 4c 24 38 48 89 84 24 40 01 00 00 48 89  0H.L$8H..$@...H.
	0x0420 8c 24 48 01 00 00 48 8b 44 24 60 48 89 44 24 58  .$H...H.D$`H.D$X
	0x0430 48 8b 84 24 40 01 00 00 48 8b 8c 24 48 01 00 00  H..$@...H..$H...
	0x0440 48 89 84 24 e0 00 00 00 48 89 8c 24 e8 00 00 00  H..$....H..$....
	0x0450 48 8b 44 24 58 48 89 44 24 48 48 8b 84 24 e0 00  H.D$XH.D$HH..$..
	0x0460 00 00 48 8b 8c 24 e8 00 00 00 48 89 84 24 b0 00  ..H..$....H..$..
	0x0470 00 00 48 89 8c 24 b8 00 00 00 eb 00 48 8b ac 24  ..H..$......H..$
	0x0480 b0 01 00 00 48 81 c4 b8 01 00 00 c3 e9 70 fe ff  ....H........p..
	0x0490 ff e8 00 00 00 00 e9 65 fb ff ff                 .......e...
	rel 5+4 t=16 TLS+0
	rel 88+4 t=15 go.string."hello, interface"+0
	rel 174+4 t=15 type."".T+0
	rel 196+4 t=8 runtime.convT2E+0
	rel 288+4 t=15 go.itab."".T,"".NonEmptyInterface+0
	rel 310+4 t=8 runtime.convT2I+0
	rel 520+4 t=15 os.Stdout+0
	rel 527+4 t=15 go.itab.*os.File,io.Writer+0
	rel 580+4 t=8 fmt.Fprintln+0
	rel 962+4 t=15 os.Stdout+0
	rel 969+4 t=15 go.itab.*os.File,io.Writer+0
	rel 1022+4 t=8 fmt.Fprintln+0
	rel 1170+4 t=8 runtime.morestack_noctxt+0
type..hash."".T STEXT dupok size=158 args=0x18 locals=0x38
	0x0000 00000 (<autogenerated>:1)	TEXT	type..hash."".T(SB), DUPOK|ABIInternal, $56-24
	0x0000 00000 (<autogenerated>:1)	MOVQ	(TLS), CX
	0x0009 00009 (<autogenerated>:1)	CMPQ	SP, 16(CX)
	0x000d 00013 (<autogenerated>:1)	JLS	148
	0x0013 00019 (<autogenerated>:1)	SUBQ	$56, SP
	0x0017 00023 (<autogenerated>:1)	MOVQ	BP, 48(SP)
	0x001c 00028 (<autogenerated>:1)	LEAQ	48(SP), BP
	0x0021 00033 (<autogenerated>:1)	FUNCDATA	$0, gclocals·1a65e721a2ccc325b382662e7ffee780(SB)
	0x0021 00033 (<autogenerated>:1)	FUNCDATA	$1, gclocals·2589ca35330fc0fce83503f4569854a0(SB)
	0x0021 00033 (<autogenerated>:1)	FUNCDATA	$2, gclocals·9fb7f0986f647f17cb53dda1484e0f7a(SB)
	0x0021 00033 (<autogenerated>:1)	PCDATA	$0, $0
	0x0021 00033 (<autogenerated>:1)	PCDATA	$1, $0
	0x0021 00033 (<autogenerated>:1)	MOVQ	$0, "".~r2+80(SP)
	0x002a 00042 (<autogenerated>:1)	PCDATA	$0, $1
	0x002a 00042 (<autogenerated>:1)	MOVQ	"".p+64(SP), AX
	0x002f 00047 (<autogenerated>:1)	MOVQ	AX, ""..autotmp_3+40(SP)
	0x0034 00052 (<autogenerated>:1)	PCDATA	$0, $0
	0x0034 00052 (<autogenerated>:1)	MOVQ	AX, (SP)
	0x0038 00056 (<autogenerated>:1)	MOVQ	"".h+72(SP), AX
	0x003d 00061 (<autogenerated>:1)	MOVQ	AX, 8(SP)
	0x0042 00066 (<autogenerated>:1)	MOVQ	$8, 16(SP)
	0x004b 00075 (<autogenerated>:1)	CALL	runtime.memhash(SB)
	0x0050 00080 (<autogenerated>:1)	MOVQ	24(SP), AX
	0x0055 00085 (<autogenerated>:1)	MOVQ	AX, "".h+72(SP)
	0x005a 00090 (<autogenerated>:1)	PCDATA	$0, $1
	0x005a 00090 (<autogenerated>:1)	PCDATA	$1, $1
	0x005a 00090 (<autogenerated>:1)	MOVQ	"".p+64(SP), AX
	0x005f 00095 (<autogenerated>:1)	ADDQ	$8, AX
	0x0063 00099 (<autogenerated>:1)	MOVQ	AX, ""..autotmp_4+32(SP)
	0x0068 00104 (<autogenerated>:1)	PCDATA	$0, $0
	0x0068 00104 (<autogenerated>:1)	MOVQ	AX, (SP)
	0x006c 00108 (<autogenerated>:1)	MOVQ	"".h+72(SP), AX
	0x0071 00113 (<autogenerated>:1)	MOVQ	AX, 8(SP)
	0x0076 00118 (<autogenerated>:1)	CALL	runtime.strhash(SB)
	0x007b 00123 (<autogenerated>:1)	MOVQ	16(SP), AX
	0x0080 00128 (<autogenerated>:1)	MOVQ	AX, "".h+72(SP)
	0x0085 00133 (<autogenerated>:1)	MOVQ	AX, "".~r2+80(SP)
	0x008a 00138 (<autogenerated>:1)	MOVQ	48(SP), BP
	0x008f 00143 (<autogenerated>:1)	ADDQ	$56, SP
	0x0093 00147 (<autogenerated>:1)	RET
	0x0094 00148 (<autogenerated>:1)	NOP
	0x0094 00148 (<autogenerated>:1)	PCDATA	$1, $-1
	0x0094 00148 (<autogenerated>:1)	PCDATA	$0, $-1
	0x0094 00148 (<autogenerated>:1)	CALL	runtime.morestack_noctxt(SB)
	0x0099 00153 (<autogenerated>:1)	JMP	0
	0x0000 65 48 8b 0c 25 00 00 00 00 48 3b 61 10 0f 86 81  eH..%....H;a....
	0x0010 00 00 00 48 83 ec 38 48 89 6c 24 30 48 8d 6c 24  ...H..8H.l$0H.l$
	0x0020 30 48 c7 44 24 50 00 00 00 00 48 8b 44 24 40 48  0H.D$P....H.D$@H
	0x0030 89 44 24 28 48 89 04 24 48 8b 44 24 48 48 89 44  .D$(H..$H.D$HH.D
	0x0040 24 08 48 c7 44 24 10 08 00 00 00 e8 00 00 00 00  $.H.D$..........
	0x0050 48 8b 44 24 18 48 89 44 24 48 48 8b 44 24 40 48  H.D$.H.D$HH.D$@H
	0x0060 83 c0 08 48 89 44 24 20 48 89 04 24 48 8b 44 24  ...H.D$ H..$H.D$
	0x0070 48 48 89 44 24 08 e8 00 00 00 00 48 8b 44 24 10  HH.D$......H.D$.
	0x0080 48 89 44 24 48 48 89 44 24 50 48 8b 6c 24 30 48  H.D$HH.D$PH.l$0H
	0x0090 83 c4 38 c3 e8 00 00 00 00 e9 62 ff ff ff        ..8.......b...
	rel 5+4 t=16 TLS+0
	rel 76+4 t=8 runtime.memhash+0
	rel 119+4 t=8 runtime.strhash+0
	rel 149+4 t=8 runtime.morestack_noctxt+0
type..eq."".T STEXT dupok size=198 args=0x18 locals=0x50
	0x0000 00000 (<autogenerated>:1)	TEXT	type..eq."".T(SB), DUPOK|ABIInternal, $80-24
	0x0000 00000 (<autogenerated>:1)	MOVQ	(TLS), CX
	0x0009 00009 (<autogenerated>:1)	CMPQ	SP, 16(CX)
	0x000d 00013 (<autogenerated>:1)	JLS	188
	0x0013 00019 (<autogenerated>:1)	SUBQ	$80, SP
	0x0017 00023 (<autogenerated>:1)	MOVQ	BP, 72(SP)
	0x001c 00028 (<autogenerated>:1)	LEAQ	72(SP), BP
	0x0021 00033 (<autogenerated>:1)	FUNCDATA	$0, gclocals·98b3fe0fe486cb80582d9e40e05ed306(SB)
	0x0021 00033 (<autogenerated>:1)	FUNCDATA	$1, gclocals·c43b6553139b2dad5540cd03018f0ff6(SB)
	0x0021 00033 (<autogenerated>:1)	FUNCDATA	$2, gclocals·6e8d7ea4abad763909b26991048ee1fe(SB)
	0x0021 00033 (<autogenerated>:1)	PCDATA	$0, $0
	0x0021 00033 (<autogenerated>:1)	PCDATA	$1, $0
	0x0021 00033 (<autogenerated>:1)	MOVB	$0, "".~r2+104(SP)
	0x0026 00038 (<autogenerated>:1)	PCDATA	$0, $1
	0x0026 00038 (<autogenerated>:1)	MOVQ	"".p+88(SP), AX
	0x002b 00043 (<autogenerated>:1)	PCDATA	$0, $2
	0x002b 00043 (<autogenerated>:1)	MOVQ	"".q+96(SP), CX
	0x0030 00048 (<autogenerated>:1)	PCDATA	$0, $1
	0x0030 00048 (<autogenerated>:1)	MOVQ	(CX), CX
	0x0033 00051 (<autogenerated>:1)	PCDATA	$0, $0
	0x0033 00051 (<autogenerated>:1)	CMPQ	(AX), CX
	0x0036 00054 (<autogenerated>:1)	SETEQ	AL
	0x0039 00057 (<autogenerated>:1)	MOVB	AL, ""..autotmp_3+39(SP)
	0x003d 00061 (<autogenerated>:1)	JEQ	65
	0x003f 00063 (<autogenerated>:1)	JMP	186
	0x0041 00065 (<autogenerated>:1)	PCDATA	$0, $1
	0x0041 00065 (<autogenerated>:1)	PCDATA	$1, $1
	0x0041 00065 (<autogenerated>:1)	MOVQ	"".p+88(SP), AX
	0x0046 00070 (<autogenerated>:1)	MOVQ	16(AX), CX
	0x004a 00074 (<autogenerated>:1)	MOVQ	8(AX), AX
	0x004e 00078 (<autogenerated>:1)	PCDATA	$0, $0
	0x004e 00078 (<autogenerated>:1)	PCDATA	$1, $2
	0x004e 00078 (<autogenerated>:1)	MOVQ	AX, ""..autotmp_4+56(SP)
	0x0053 00083 (<autogenerated>:1)	MOVQ	CX, ""..autotmp_4+64(SP)
	0x0058 00088 (<autogenerated>:1)	PCDATA	$0, $1
	0x0058 00088 (<autogenerated>:1)	PCDATA	$1, $3
	0x0058 00088 (<autogenerated>:1)	MOVQ	"".q+96(SP), AX
	0x005d 00093 (<autogenerated>:1)	PCDATA	$0, $2
	0x005d 00093 (<autogenerated>:1)	MOVQ	8(AX), CX
	0x0061 00097 (<autogenerated>:1)	PCDATA	$0, $3
	0x0061 00097 (<autogenerated>:1)	MOVQ	16(AX), AX
	0x0065 00101 (<autogenerated>:1)	MOVQ	CX, ""..autotmp_5+40(SP)
	0x006a 00106 (<autogenerated>:1)	MOVQ	AX, ""..autotmp_5+48(SP)
	0x006f 00111 (<autogenerated>:1)	CMPQ	""..autotmp_4+64(SP), AX
	0x0074 00116 (<autogenerated>:1)	SETEQ	AL
	0x0077 00119 (<autogenerated>:1)	JEQ	123
	0x0079 00121 (<autogenerated>:1)	JMP	184
	0x007b 00123 (<autogenerated>:1)	PCDATA	$0, $2
	0x007b 00123 (<autogenerated>:1)	MOVQ	""..autotmp_4+56(SP), AX
	0x0080 00128 (<autogenerated>:1)	PCDATA	$0, $3
	0x0080 00128 (<autogenerated>:1)	MOVQ	AX, (SP)
	0x0084 00132 (<autogenerated>:1)	PCDATA	$0, $0
	0x0084 00132 (<autogenerated>:1)	MOVQ	CX, 8(SP)
	0x0089 00137 (<autogenerated>:1)	PCDATA	$1, $4
	0x0089 00137 (<autogenerated>:1)	MOVQ	""..autotmp_4+64(SP), AX
	0x008e 00142 (<autogenerated>:1)	MOVQ	AX, 16(SP)
	0x0093 00147 (<autogenerated>:1)	CALL	runtime.memequal(SB)
	0x0098 00152 (<autogenerated>:1)	MOVBLZX	24(SP), AX
	0x009d 00157 (<autogenerated>:1)	JMP	159
	0x009f 00159 (<autogenerated>:1)	MOVB	AL, ""..autotmp_3+39(SP)
	0x00a3 00163 (<autogenerated>:1)	JMP	165
	0x00a5 00165 (<autogenerated>:1)	MOVBLZX	""..autotmp_3+39(SP), AX
	0x00aa 00170 (<autogenerated>:1)	MOVB	AL, "".~r2+104(SP)
	0x00ae 00174 (<autogenerated>:1)	MOVQ	72(SP), BP
	0x00b3 00179 (<autogenerated>:1)	ADDQ	$80, SP
	0x00b7 00183 (<autogenerated>:1)	RET
	0x00b8 00184 (<autogenerated>:1)	PCDATA	$0, $-2
	0x00b8 00184 (<autogenerated>:1)	PCDATA	$1, $-2
	0x00b8 00184 (<autogenerated>:1)	JMP	159
	0x00ba 00186 (<autogenerated>:1)	JMP	165
	0x00bc 00188 (<autogenerated>:1)	NOP
	0x00bc 00188 (<autogenerated>:1)	PCDATA	$1, $-1
	0x00bc 00188 (<autogenerated>:1)	PCDATA	$0, $-1
	0x00bc 00188 (<autogenerated>:1)	CALL	runtime.morestack_noctxt(SB)
	0x00c1 00193 (<autogenerated>:1)	JMP	0
	0x0000 65 48 8b 0c 25 00 00 00 00 48 3b 61 10 0f 86 a9  eH..%....H;a....
	0x0010 00 00 00 48 83 ec 50 48 89 6c 24 48 48 8d 6c 24  ...H..PH.l$HH.l$
	0x0020 48 c6 44 24 68 00 48 8b 44 24 58 48 8b 4c 24 60  H.D$h.H.D$XH.L$`
	0x0030 48 8b 09 48 39 08 0f 94 c0 88 44 24 27 74 02 eb  H..H9.....D$'t..
	0x0040 79 48 8b 44 24 58 48 8b 48 10 48 8b 40 08 48 89  yH.D$XH.H.H.@.H.
	0x0050 44 24 38 48 89 4c 24 40 48 8b 44 24 60 48 8b 48  D$8H.L$@H.D$`H.H
	0x0060 08 48 8b 40 10 48 89 4c 24 28 48 89 44 24 30 48  .H.@.H.L$(H.D$0H
	0x0070 39 44 24 40 0f 94 c0 74 02 eb 3d 48 8b 44 24 38  9D$@...t..=H.D$8
	0x0080 48 89 04 24 48 89 4c 24 08 48 8b 44 24 40 48 89  H..$H.L$.H.D$@H.
	0x0090 44 24 10 e8 00 00 00 00 0f b6 44 24 18 eb 00 88  D$........D$....
	0x00a0 44 24 27 eb 00 0f b6 44 24 27 88 44 24 68 48 8b  D$'....D$'.D$hH.
	0x00b0 6c 24 48 48 83 c4 50 c3 eb e5 eb e9 e8 00 00 00  l$HH..P.........
	0x00c0 00 e9 3a ff ff ff                                ..:...
	rel 5+4 t=16 TLS+0
	rel 148+4 t=8 runtime.memequal+0
	rel 189+4 t=8 runtime.morestack_noctxt+0
"".(*T).M1 STEXT dupok nosplit size=79 args=0x8 locals=0x8
	0x0000 00000 (<autogenerated>:1)	TEXT	"".(*T).M1(SB), DUPOK|NOSPLIT|WRAPPER|ABIInternal, $8-8
	0x0000 00000 (<autogenerated>:1)	MOVQ	(TLS), CX
	0x0009 00009 (<autogenerated>:1)	SUBQ	$8, SP
	0x000d 00013 (<autogenerated>:1)	MOVQ	BP, (SP)
	0x0011 00017 (<autogenerated>:1)	LEAQ	(SP), BP
	0x0015 00021 (<autogenerated>:1)	MOVQ	32(CX), BX
	0x0019 00025 (<autogenerated>:1)	TESTQ	BX, BX
	0x001c 00028 (<autogenerated>:1)	JNE	64
	0x001e 00030 (<autogenerated>:1)	NOP
	0x001e 00030 (<autogenerated>:1)	FUNCDATA	$0, gclocals·1a65e721a2ccc325b382662e7ffee780(SB)
	0x001e 00030 (<autogenerated>:1)	FUNCDATA	$1, gclocals·69c1753bd5f81501d95132d08af04464(SB)
	0x001e 00030 (<autogenerated>:1)	FUNCDATA	$2, gclocals·9fb7f0986f647f17cb53dda1484e0f7a(SB)
	0x001e 00030 (<autogenerated>:1)	PCDATA	$0, $0
	0x001e 00030 (<autogenerated>:1)	PCDATA	$1, $0
	0x001e 00030 (<autogenerated>:1)	CMPQ	""..this+16(SP), $0
	0x0024 00036 (<autogenerated>:1)	JNE	40
	0x0026 00038 (<autogenerated>:1)	JMP	58
	0x0028 00040 (<autogenerated>:1)	PCDATA	$0, $1
	0x0028 00040 (<autogenerated>:1)	PCDATA	$1, $1
	0x0028 00040 (<autogenerated>:1)	MOVQ	""..this+16(SP), AX
	0x002d 00045 (<autogenerated>:1)	PCDATA	$0, $0
	0x002d 00045 (<autogenerated>:1)	TESTB	AL, (AX)
	0x002f 00047 (<autogenerated>:1)	JMP	49
	0x0031 00049 (<unknown line number>)	PCDATA	$0, $-2
	0x0031 00049 (<unknown line number>)	PCDATA	$1, $-2
	0x0031 00049 (<unknown line number>)	MOVQ	(SP), BP
	0x0035 00053 (<unknown line number>)	ADDQ	$8, SP
	0x0039 00057 (<unknown line number>)	RET
	0x003a 00058 (<autogenerated>:1)	PCDATA	$0, $0
	0x003a 00058 (<autogenerated>:1)	PCDATA	$1, $1
	0x003a 00058 (<autogenerated>:1)	CALL	runtime.panicwrap(SB)
	0x003f 00063 (<autogenerated>:1)	XCHGL	AX, AX
	0x0040 00064 (<autogenerated>:1)	LEAQ	16(SP), DI
	0x0045 00069 (<autogenerated>:1)	CMPQ	(BX), DI
	0x0048 00072 (<autogenerated>:1)	JNE	30
	0x004a 00074 (<autogenerated>:1)	MOVQ	SP, (BX)
	0x004d 00077 (<autogenerated>:1)	JMP	30
	0x0000 65 48 8b 0c 25 00 00 00 00 48 83 ec 08 48 89 2c  eH..%....H...H.,
	0x0010 24 48 8d 2c 24 48 8b 59 20 48 85 db 75 22 48 83  $H.,$H.Y H..u"H.
	0x0020 7c 24 10 00 75 02 eb 12 48 8b 44 24 10 84 00 eb  |$..u...H.D$....
	0x0030 00 48 8b 2c 24 48 83 c4 08 c3 e8 00 00 00 00 90  .H.,$H..........
	0x0040 48 8d 7c 24 10 48 39 3b 75 d4 48 89 23 eb cf     H.|$.H9;u.H.#..
	rel 5+4 t=16 TLS+0
	rel 59+4 t=8 runtime.panicwrap+0
"".(*T).M2 STEXT dupok nosplit size=79 args=0x8 locals=0x8
	0x0000 00000 (<autogenerated>:1)	TEXT	"".(*T).M2(SB), DUPOK|NOSPLIT|WRAPPER|ABIInternal, $8-8
	0x0000 00000 (<autogenerated>:1)	MOVQ	(TLS), CX
	0x0009 00009 (<autogenerated>:1)	SUBQ	$8, SP
	0x000d 00013 (<autogenerated>:1)	MOVQ	BP, (SP)
	0x0011 00017 (<autogenerated>:1)	LEAQ	(SP), BP
	0x0015 00021 (<autogenerated>:1)	MOVQ	32(CX), BX
	0x0019 00025 (<autogenerated>:1)	TESTQ	BX, BX
	0x001c 00028 (<autogenerated>:1)	JNE	64
	0x001e 00030 (<autogenerated>:1)	NOP
	0x001e 00030 (<autogenerated>:1)	FUNCDATA	$0, gclocals·1a65e721a2ccc325b382662e7ffee780(SB)
	0x001e 00030 (<autogenerated>:1)	FUNCDATA	$1, gclocals·69c1753bd5f81501d95132d08af04464(SB)
	0x001e 00030 (<autogenerated>:1)	FUNCDATA	$2, gclocals·9fb7f0986f647f17cb53dda1484e0f7a(SB)
	0x001e 00030 (<autogenerated>:1)	PCDATA	$0, $0
	0x001e 00030 (<autogenerated>:1)	PCDATA	$1, $0
	0x001e 00030 (<autogenerated>:1)	CMPQ	""..this+16(SP), $0
	0x0024 00036 (<autogenerated>:1)	JNE	40
	0x0026 00038 (<autogenerated>:1)	JMP	58
	0x0028 00040 (<autogenerated>:1)	PCDATA	$0, $1
	0x0028 00040 (<autogenerated>:1)	PCDATA	$1, $1
	0x0028 00040 (<autogenerated>:1)	MOVQ	""..this+16(SP), AX
	0x002d 00045 (<autogenerated>:1)	PCDATA	$0, $0
	0x002d 00045 (<autogenerated>:1)	TESTB	AL, (AX)
	0x002f 00047 (<autogenerated>:1)	JMP	49
	0x0031 00049 (<unknown line number>)	PCDATA	$0, $-2
	0x0031 00049 (<unknown line number>)	PCDATA	$1, $-2
	0x0031 00049 (<unknown line number>)	MOVQ	(SP), BP
	0x0035 00053 (<unknown line number>)	ADDQ	$8, SP
	0x0039 00057 (<unknown line number>)	RET
	0x003a 00058 (<autogenerated>:1)	PCDATA	$0, $0
	0x003a 00058 (<autogenerated>:1)	PCDATA	$1, $1
	0x003a 00058 (<autogenerated>:1)	CALL	runtime.panicwrap(SB)
	0x003f 00063 (<autogenerated>:1)	XCHGL	AX, AX
	0x0040 00064 (<autogenerated>:1)	LEAQ	16(SP), DI
	0x0045 00069 (<autogenerated>:1)	CMPQ	(BX), DI
	0x0048 00072 (<autogenerated>:1)	JNE	30
	0x004a 00074 (<autogenerated>:1)	MOVQ	SP, (BX)
	0x004d 00077 (<autogenerated>:1)	JMP	30
	0x0000 65 48 8b 0c 25 00 00 00 00 48 83 ec 08 48 89 2c  eH..%....H...H.,
	0x0010 24 48 8d 2c 24 48 8b 59 20 48 85 db 75 22 48 83  $H.,$H.Y H..u"H.
	0x0020 7c 24 10 00 75 02 eb 12 48 8b 44 24 10 84 00 eb  |$..u...H.D$....
	0x0030 00 48 8b 2c 24 48 83 c4 08 c3 e8 00 00 00 00 90  .H.,$H..........
	0x0040 48 8d 7c 24 10 48 39 3b 75 d4 48 89 23 eb cf     H.|$.H9;u.H.#..
	rel 5+4 t=16 TLS+0
	rel 59+4 t=8 runtime.panicwrap+0
"".NonEmptyInterface.M1 STEXT dupok size=92 args=0x10 locals=0x10
	0x0000 00000 (<autogenerated>:1)	TEXT	"".NonEmptyInterface.M1(SB), DUPOK|WRAPPER|ABIInternal, $16-16
	0x0000 00000 (<autogenerated>:1)	MOVQ	(TLS), CX
	0x0009 00009 (<autogenerated>:1)	CMPQ	SP, 16(CX)
	0x000d 00013 (<autogenerated>:1)	JLS	70
	0x000f 00015 (<autogenerated>:1)	SUBQ	$16, SP
	0x0013 00019 (<autogenerated>:1)	MOVQ	BP, 8(SP)
	0x0018 00024 (<autogenerated>:1)	LEAQ	8(SP), BP
	0x001d 00029 (<autogenerated>:1)	MOVQ	32(CX), BX
	0x0021 00033 (<autogenerated>:1)	TESTQ	BX, BX
	0x0024 00036 (<autogenerated>:1)	JNE	77
	0x0026 00038 (<autogenerated>:1)	NOP
	0x0026 00038 (<autogenerated>:1)	FUNCDATA	$0, gclocals·09cf9819fc716118c209c2d2155a3632(SB)
	0x0026 00038 (<autogenerated>:1)	FUNCDATA	$1, gclocals·69c1753bd5f81501d95132d08af04464(SB)
	0x0026 00038 (<autogenerated>:1)	FUNCDATA	$2, gclocals·568470801006e5c0dc3947ea998fe279(SB)
	0x0026 00038 (<autogenerated>:1)	PCDATA	$0, $0
	0x0026 00038 (<autogenerated>:1)	PCDATA	$1, $0
	0x0026 00038 (<autogenerated>:1)	MOVQ	""..this+24(SP), AX
	0x002b 00043 (<autogenerated>:1)	TESTB	AL, (AX)
	0x002d 00045 (<autogenerated>:1)	MOVQ	24(AX), AX
	0x0031 00049 (<autogenerated>:1)	PCDATA	$0, $1
	0x0031 00049 (<autogenerated>:1)	PCDATA	$1, $1
	0x0031 00049 (<autogenerated>:1)	MOVQ	""..this+32(SP), CX
	0x0036 00054 (<autogenerated>:1)	PCDATA	$0, $0
	0x0036 00054 (<autogenerated>:1)	MOVQ	CX, (SP)
	0x003a 00058 (<autogenerated>:1)	CALL	AX
	0x003c 00060 (<autogenerated>:1)	MOVQ	8(SP), BP
	0x0041 00065 (<autogenerated>:1)	ADDQ	$16, SP
	0x0045 00069 (<autogenerated>:1)	RET
	0x0046 00070 (<autogenerated>:1)	NOP
	0x0046 00070 (<autogenerated>:1)	PCDATA	$1, $-1
	0x0046 00070 (<autogenerated>:1)	PCDATA	$0, $-1
	0x0046 00070 (<autogenerated>:1)	CALL	runtime.morestack_noctxt(SB)
	0x004b 00075 (<autogenerated>:1)	JMP	0
	0x004d 00077 (<autogenerated>:1)	LEAQ	24(SP), DI
	0x0052 00082 (<autogenerated>:1)	CMPQ	(BX), DI
	0x0055 00085 (<autogenerated>:1)	JNE	38
	0x0057 00087 (<autogenerated>:1)	MOVQ	SP, (BX)
	0x005a 00090 (<autogenerated>:1)	JMP	38
	0x0000 65 48 8b 0c 25 00 00 00 00 48 3b 61 10 76 37 48  eH..%....H;a.v7H
	0x0010 83 ec 10 48 89 6c 24 08 48 8d 6c 24 08 48 8b 59  ...H.l$.H.l$.H.Y
	0x0020 20 48 85 db 75 27 48 8b 44 24 18 84 00 48 8b 40   H..u'H.D$...H.@
	0x0030 18 48 8b 4c 24 20 48 89 0c 24 ff d0 48 8b 6c 24  .H.L$ H..$..H.l$
	0x0040 08 48 83 c4 10 c3 e8 00 00 00 00 eb b3 48 8d 7c  .H...........H.|
	0x0050 24 18 48 39 3b 75 cf 48 89 23 eb ca              $.H9;u.H.#..
	rel 5+4 t=16 TLS+0
	rel 58+0 t=11 +0
	rel 71+4 t=8 runtime.morestack_noctxt+0
"".NonEmptyInterface.M2 STEXT dupok size=92 args=0x10 locals=0x10
	0x0000 00000 (<autogenerated>:1)	TEXT	"".NonEmptyInterface.M2(SB), DUPOK|WRAPPER|ABIInternal, $16-16
	0x0000 00000 (<autogenerated>:1)	MOVQ	(TLS), CX
	0x0009 00009 (<autogenerated>:1)	CMPQ	SP, 16(CX)
	0x000d 00013 (<autogenerated>:1)	JLS	70
	0x000f 00015 (<autogenerated>:1)	SUBQ	$16, SP
	0x0013 00019 (<autogenerated>:1)	MOVQ	BP, 8(SP)
	0x0018 00024 (<autogenerated>:1)	LEAQ	8(SP), BP
	0x001d 00029 (<autogenerated>:1)	MOVQ	32(CX), BX
	0x0021 00033 (<autogenerated>:1)	TESTQ	BX, BX
	0x0024 00036 (<autogenerated>:1)	JNE	77
	0x0026 00038 (<autogenerated>:1)	NOP
	0x0026 00038 (<autogenerated>:1)	FUNCDATA	$0, gclocals·09cf9819fc716118c209c2d2155a3632(SB)
	0x0026 00038 (<autogenerated>:1)	FUNCDATA	$1, gclocals·69c1753bd5f81501d95132d08af04464(SB)
	0x0026 00038 (<autogenerated>:1)	FUNCDATA	$2, gclocals·568470801006e5c0dc3947ea998fe279(SB)
	0x0026 00038 (<autogenerated>:1)	PCDATA	$0, $0
	0x0026 00038 (<autogenerated>:1)	PCDATA	$1, $0
	0x0026 00038 (<autogenerated>:1)	MOVQ	""..this+24(SP), AX
	0x002b 00043 (<autogenerated>:1)	TESTB	AL, (AX)
	0x002d 00045 (<autogenerated>:1)	MOVQ	32(AX), AX
	0x0031 00049 (<autogenerated>:1)	PCDATA	$0, $1
	0x0031 00049 (<autogenerated>:1)	PCDATA	$1, $1
	0x0031 00049 (<autogenerated>:1)	MOVQ	""..this+32(SP), CX
	0x0036 00054 (<autogenerated>:1)	PCDATA	$0, $0
	0x0036 00054 (<autogenerated>:1)	MOVQ	CX, (SP)
	0x003a 00058 (<autogenerated>:1)	CALL	AX
	0x003c 00060 (<autogenerated>:1)	MOVQ	8(SP), BP
	0x0041 00065 (<autogenerated>:1)	ADDQ	$16, SP
	0x0045 00069 (<autogenerated>:1)	RET
	0x0046 00070 (<autogenerated>:1)	NOP
	0x0046 00070 (<autogenerated>:1)	PCDATA	$1, $-1
	0x0046 00070 (<autogenerated>:1)	PCDATA	$0, $-1
	0x0046 00070 (<autogenerated>:1)	CALL	runtime.morestack_noctxt(SB)
	0x004b 00075 (<autogenerated>:1)	JMP	0
	0x004d 00077 (<autogenerated>:1)	LEAQ	24(SP), DI
	0x0052 00082 (<autogenerated>:1)	CMPQ	(BX), DI
	0x0055 00085 (<autogenerated>:1)	JNE	38
	0x0057 00087 (<autogenerated>:1)	MOVQ	SP, (BX)
	0x005a 00090 (<autogenerated>:1)	JMP	38
	0x0000 65 48 8b 0c 25 00 00 00 00 48 3b 61 10 76 37 48  eH..%....H;a.v7H
	0x0010 83 ec 10 48 89 6c 24 08 48 8d 6c 24 08 48 8b 59  ...H.l$.H.l$.H.Y
	0x0020 20 48 85 db 75 27 48 8b 44 24 18 84 00 48 8b 40   H..u'H.D$...H.@
	0x0030 20 48 8b 4c 24 20 48 89 0c 24 ff d0 48 8b 6c 24   H.L$ H..$..H.l$
	0x0040 08 48 83 c4 10 c3 e8 00 00 00 00 eb b3 48 8d 7c  .H...........H.|
	0x0050 24 18 48 39 3b 75 cf 48 89 23 eb ca              $.H9;u.H.#..
	rel 5+4 t=16 TLS+0
	rel 58+0 t=11 +0
	rel 71+4 t=8 runtime.morestack_noctxt+0
go.cuinfo.packagename. SDWARFINFO dupok size=0
	0x0000 6d 61 69 6e                                      main
go.info.fmt.Println$abstract SDWARFINFO dupok size=42
	0x0000 04 66 6d 74 2e 50 72 69 6e 74 6c 6e 00 01 01 11  .fmt.Println....
	0x0010 61 00 00 00 00 00 00 11 6e 00 01 00 00 00 00 11  a.......n.......
	0x0020 65 72 72 00 01 00 00 00 00 00                    err.......
	rel 19+4 t=28 go.info.[]interface {}+0
	rel 27+4 t=28 go.info.int+0
	rel 37+4 t=28 go.info.error+0
go.loc.os.(*File).close SDWARFLOC dupok size=0
go.info.os.(*File).close SDWARFINFO dupok size=72
	0x0000 03 6f 73 2e 28 2a 46 69 6c 65 29 2e 63 6c 6f 73  .os.(*File).clos
	0x0010 65 00 00 00 00 00 00 00 00 00 00 00 00 00 00 00  e...............
	0x0020 00 00 01 9c 00 00 00 00 01 0f 2e 74 68 69 73 00  ...........this.
	0x0030 00 01 00 00 00 00 01 9c 0f 7e 72 30 00 01 ec 01  .........~r0....
	0x0040 00 00 00 00 02 91 08 00                          ........
	rel 18+8 t=1 os.(*File).close+0
	rel 26+8 t=1 os.(*File).close+28
	rel 36+4 t=29 gofile..<autogenerated>+0
	rel 50+4 t=28 go.info.*os.File+0
	rel 64+4 t=28 go.info.error+0
go.range.os.(*File).close SDWARFRANGE dupok size=0
go.isstmt.os.(*File).close SDWARFMISC dupok size=0
	0x0000 04 03 01 14 02 05 00                             .......
go.loc."".T.M1 SDWARFLOC size=0
go.info."".T.M1 SDWARFINFO size=33
	0x0000 03 22 22 2e 54 2e 4d 31 00 00 00 00 00 00 00 00  ."".T.M1........
	0x0010 00 00 00 00 00 00 00 00 00 01 9c 00 00 00 00 01  ................
	0x0020 00                                               .
	rel 9+8 t=1 "".T.M1+0
	rel 17+8 t=1 "".T.M1+1
	rel 27+4 t=29 gofile../Users/tonybai/Startup/培训-演讲-课程-合作/github/books/effective-go/chapters/chapter5/source/interface-internal-4.go+0
go.range."".T.M1 SDWARFRANGE size=0
go.isstmt."".T.M1 SDWARFMISC size=0
	0x0000 04 01 00                                         ...
go.loc."".T.M2 SDWARFLOC size=0
go.info."".T.M2 SDWARFINFO size=33
	0x0000 03 22 22 2e 54 2e 4d 32 00 00 00 00 00 00 00 00  ."".T.M2........
	0x0010 00 00 00 00 00 00 00 00 00 01 9c 00 00 00 00 01  ................
	0x0020 00                                               .
	rel 9+8 t=1 "".T.M2+0
	rel 17+8 t=1 "".T.M2+1
	rel 27+4 t=29 gofile../Users/tonybai/Startup/培训-演讲-课程-合作/github/books/effective-go/chapters/chapter5/source/interface-internal-4.go+0
go.range."".T.M2 SDWARFRANGE size=0
go.isstmt."".T.M2 SDWARFMISC size=0
	0x0000 04 01 00                                         ...
go.string."hello, interface" SRODATA dupok size=16
	0x0000 68 65 6c 6c 6f 2c 20 69 6e 74 65 72 66 61 63 65  hello, interface
go.loc."".main SDWARFLOC size=0
go.info."".main SDWARFINFO size=215
	0x0000 03 22 22 2e 6d 61 69 6e 00 00 00 00 00 00 00 00  ."".main........
	0x0010 00 00 00 00 00 00 00 00 00 01 9c 00 00 00 00 01  ................
	0x0020 0a 7e 61 72 67 30 00 1c 00 00 00 00 03 91 c0 7d  .~arg0.........}
	0x0030 0a 7e 61 72 67 30 00 1d 00 00 00 00 03 91 d0 7d  .~arg0.........}
	0x0040 0a 69 00 1a 00 00 00 00 03 91 e0 7d 0a 65 69 00  .i.........}.ei.
	0x0050 17 00 00 00 00 03 91 90 7e 0a 74 00 13 00 00 00  ........~.t.....
	0x0060 00 03 91 90 7f 06 00 00 00 00 00 00 00 00 00 00  ................
	0x0070 00 00 00 00 00 00 00 00 00 00 00 00 00 00 1c 00  ................
	0x0080 00 00 12 00 00 00 00 02 91 40 12 00 00 00 00 03  .........@......
	0x0090 91 80 7d 12 00 00 00 00 03 91 80 7e 00 06 00 00  ..}........~....
	0x00a0 00 00 00 00 00 00 00 00 00 00 00 00 00 00 00 00  ................
	0x00b0 00 00 00 00 00 00 1d 00 00 00 12 00 00 00 00 03  ................
	0x00c0 91 a8 7f 12 00 00 00 00 03 91 88 7d 12 00 00 00  ...........}....
	0x00d0 00 03 91 f0 7d 00 00                             ....}..
	rel 9+8 t=1 "".main+0
	rel 17+8 t=1 "".main+1179
	rel 27+4 t=29 gofile../Users/tonybai/Startup/培训-演讲-课程-合作/github/books/effective-go/chapters/chapter5/source/interface-internal-4.go+0
	rel 40+4 t=28 go.info.interface {}+0
	rel 56+4 t=28 go.info.interface {}+0
	rel 68+4 t=28 go.info."".NonEmptyInterface+0
	rel 81+4 t=28 go.info.interface {}+0
	rel 93+4 t=28 go.info."".T+0
	rel 102+4 t=28 go.info.fmt.Println$abstract+0
	rel 106+8 t=1 "".main+486
	rel 114+8 t=1 "".main+662
	rel 122+4 t=29 gofile../Users/tonybai/Startup/培训-演讲-课程-合作/github/books/effective-go/chapters/chapter5/source/interface-internal-4.go+0
	rel 131+4 t=28 go.info.fmt.Println$abstract+15
	rel 139+4 t=28 go.info.fmt.Println$abstract+23
	rel 148+4 t=28 go.info.fmt.Println$abstract+31
	rel 158+4 t=28 go.info.fmt.Println$abstract+0
	rel 162+8 t=1 "".main+928
	rel 170+8 t=1 "".main+1104
	rel 178+4 t=29 gofile../Users/tonybai/Startup/培训-演讲-课程-合作/github/books/effective-go/chapters/chapter5/source/interface-internal-4.go+0
	rel 187+4 t=28 go.info.fmt.Println$abstract+15
	rel 196+4 t=28 go.info.fmt.Println$abstract+23
	rel 205+4 t=28 go.info.fmt.Println$abstract+31
go.range."".main SDWARFRANGE size=0
go.isstmt."".main SDWARFMISC size=0
	0x0000 04 1b 04 17 03 03 01 14 02 13 01 14 02 03 01 08  ................
	0x0010 02 08 01 40 02 05 01 1a 02 03 01 08 02 08 01 40  ...@...........@
	0x0020 02 05 01 1a 02 08 01 56 02 08 01 40 02 03 01 46  .......V...@...F
	0x0030 02 05 01 4e 02 05 01 27 02 08 01 d6 01 02 09 01  ...N...'........
	0x0040 0b 02 03 01 46 02 05 01 4e 02 05 01 3c 02 0a 00  ....F...N...<...
go.loc.type..hash."".T SDWARFLOC dupok size=0
go.info.type..hash."".T SDWARFINFO dupok size=78
	0x0000 03 74 79 70 65 2e 2e 68 61 73 68 2e 22 22 2e 54  .type..hash."".T
	0x0010 00 00 00 00 00 00 00 00 00 00 00 00 00 00 00 00  ................
	0x0020 00 01 9c 00 00 00 00 01 0f 70 00 00 01 00 00 00  .........p......
	0x0030 00 01 9c 0f 68 00 00 01 00 00 00 00 02 91 08 0f  ....h...........
	0x0040 7e 72 32 00 01 01 00 00 00 00 02 91 10 00        ~r2...........
	rel 17+8 t=1 type..hash."".T+0
	rel 25+8 t=1 type..hash."".T+158
	rel 35+4 t=29 gofile..<autogenerated>+0
	rel 45+4 t=28 go.info.*"".T+0
	rel 56+4 t=28 go.info.uintptr+0
	rel 70+4 t=28 go.info.uintptr+0
go.range.type..hash."".T SDWARFRANGE dupok size=0
go.isstmt.type..hash."".T SDWARFMISC dupok size=0
	0x0000 04 13 04 0e 03 09 01 21 02 05 01 26 02 05 01 19  .......!...&....
	0x0010 02 0a 00                                         ...
go.loc.type..eq."".T SDWARFLOC dupok size=0
go.info.type..eq."".T SDWARFINFO dupok size=76
	0x0000 03 74 79 70 65 2e 2e 65 71 2e 22 22 2e 54 00 00  .type..eq."".T..
	0x0010 00 00 00 00 00 00 00 00 00 00 00 00 00 00 00 01  ................
	0x0020 9c 00 00 00 00 01 0f 70 00 00 01 00 00 00 00 01  .......p........
	0x0030 9c 0f 71 00 00 01 00 00 00 00 02 91 08 0f 7e 72  ..q...........~r
	0x0040 32 00 01 01 00 00 00 00 02 91 10 00              2...........
	rel 15+8 t=1 type..eq."".T+0
	rel 23+8 t=1 type..eq."".T+198
	rel 33+4 t=29 gofile..<autogenerated>+0
	rel 43+4 t=28 go.info.*"".T+0
	rel 54+4 t=28 go.info.*"".T+0
	rel 68+4 t=28 go.info.bool+0
go.range.type..eq."".T SDWARFRANGE dupok size=0
go.isstmt.type..eq."".T SDWARFMISC dupok size=0
	0x0000 04 13 04 0e 03 05 01 6d 02 05 01 07 02 04 01 02  .......m........
	0x0010 02 05 01 12 02 0a 00                             .......
type..hashfunc."".T SRODATA dupok size=8
	0x0000 00 00 00 00 00 00 00 00                          ........
	rel 0+8 t=1 type..hash."".T+0
type..eqfunc."".T SRODATA dupok size=8
	0x0000 00 00 00 00 00 00 00 00                          ........
	rel 0+8 t=1 type..eq."".T+0
type..alg."".T SRODATA dupok size=16
	0x0000 00 00 00 00 00 00 00 00 00 00 00 00 00 00 00 00  ................
	rel 0+8 t=1 type..hashfunc."".T+0
	rel 8+8 t=1 type..eqfunc."".T+0
runtime.gcbits.01 SRODATA dupok size=1
	0x0000 01                                               .
go.info."".T.M1$abstract SDWARFINFO dupok size=10
	0x0000 04 2e 54 2e 4d 31 00 01 01 00                    ..T.M1....
go.loc."".(*T).M1 SDWARFLOC dupok size=0
go.info."".(*T).M1 SDWARFINFO dupok size=51
	0x0000 03 22 22 2e 28 2a 54 29 2e 4d 31 00 00 00 00 00  ."".(*T).M1.....
	0x0010 00 00 00 00 00 00 00 00 00 00 00 00 01 9c 00 00  ................
	0x0020 00 00 01 0f 2e 74 68 69 73 00 00 01 00 00 00 00  .....this.......
	0x0030 01 9c 00                                         ...
	rel 12+8 t=1 "".(*T).M1+0
	rel 20+8 t=1 "".(*T).M1+79
	rel 30+4 t=29 gofile..<autogenerated>+0
	rel 44+4 t=28 go.info.*"".T+0
go.range."".(*T).M1 SDWARFRANGE dupok size=0
go.isstmt."".(*T).M1 SDWARFMISC dupok size=0
	0x0000 04 09 04 15 03 06 01 16 02 15 00                 ...........
go.info."".T.M2$abstract SDWARFINFO dupok size=10
	0x0000 04 2e 54 2e 4d 32 00 01 01 00                    ..T.M2....
go.loc."".(*T).M2 SDWARFLOC dupok size=0
go.info."".(*T).M2 SDWARFINFO dupok size=51
	0x0000 03 22 22 2e 28 2a 54 29 2e 4d 32 00 00 00 00 00  ."".(*T).M2.....
	0x0010 00 00 00 00 00 00 00 00 00 00 00 00 01 9c 00 00  ................
	0x0020 00 00 01 0f 2e 74 68 69 73 00 00 01 00 00 00 00  .....this.......
	0x0030 01 9c 00                                         ...
	rel 12+8 t=1 "".(*T).M2+0
	rel 20+8 t=1 "".(*T).M2+79
	rel 30+4 t=29 gofile..<autogenerated>+0
	rel 44+4 t=28 go.info.*"".T+0
go.range."".(*T).M2 SDWARFRANGE dupok size=0
go.isstmt."".(*T).M2 SDWARFMISC dupok size=0
	0x0000 04 09 04 15 03 06 01 16 02 15 00                 ...........
type..namedata.*main.T. SRODATA dupok size=10
	0x0000 01 00 07 2a 6d 61 69 6e 2e 54                    ...*main.T
type..namedata.*func(*main.T)- SRODATA dupok size=17
	0x0000 00 00 0e 2a 66 75 6e 63 28 2a 6d 61 69 6e 2e 54  ...*func(*main.T
	0x0010 29                                               )
type.*func(*"".T) SRODATA dupok size=56
	0x0000 08 00 00 00 00 00 00 00 08 00 00 00 00 00 00 00  ................
	0x0010 73 30 e0 de 00 08 08 36 00 00 00 00 00 00 00 00  s0.....6........
	0x0020 00 00 00 00 00 00 00 00 00 00 00 00 00 00 00 00  ................
	0x0030 00 00 00 00 00 00 00 00                          ........
	rel 24+8 t=1 runtime.algarray+80
	rel 32+8 t=1 runtime.gcbits.01+0
	rel 40+4 t=5 type..namedata.*func(*main.T)-+0
	rel 48+8 t=1 type.func(*"".T)+0
type.func(*"".T) SRODATA dupok size=64
	0x0000 08 00 00 00 00 00 00 00 08 00 00 00 00 00 00 00  ................
	0x0010 5b c2 60 8a 02 08 08 33 00 00 00 00 00 00 00 00  [.`....3........
	0x0020 00 00 00 00 00 00 00 00 00 00 00 00 00 00 00 00  ................
	0x0030 01 00 00 00 00 00 00 00 00 00 00 00 00 00 00 00  ................
	rel 24+8 t=1 runtime.algarray+0
	rel 32+8 t=1 runtime.gcbits.01+0
	rel 40+4 t=5 type..namedata.*func(*main.T)-+0
	rel 44+4 t=6 type.*func(*"".T)+0
	rel 56+8 t=1 type.*"".T+0
type..namedata.M1. SRODATA dupok size=5
	0x0000 01 00 02 4d 31                                   ...M1
type..namedata.*func()- SRODATA dupok size=10
	0x0000 00 00 07 2a 66 75 6e 63 28 29                    ...*func()
type.*func() SRODATA dupok size=56
	0x0000 08 00 00 00 00 00 00 00 08 00 00 00 00 00 00 00  ................
	0x0010 9b 90 75 1b 00 08 08 36 00 00 00 00 00 00 00 00  ..u....6........
	0x0020 00 00 00 00 00 00 00 00 00 00 00 00 00 00 00 00  ................
	0x0030 00 00 00 00 00 00 00 00                          ........
	rel 24+8 t=1 runtime.algarray+80
	rel 32+8 t=1 runtime.gcbits.01+0
	rel 40+4 t=5 type..namedata.*func()-+0
	rel 48+8 t=1 type.func()+0
type.func() SRODATA dupok size=56
	0x0000 08 00 00 00 00 00 00 00 08 00 00 00 00 00 00 00  ................
	0x0010 f6 bc 82 f6 02 08 08 33 00 00 00 00 00 00 00 00  .......3........
	0x0020 00 00 00 00 00 00 00 00 00 00 00 00 00 00 00 00  ................
	0x0030 00 00 00 00                                      ....
	rel 24+8 t=1 runtime.algarray+0
	rel 32+8 t=1 runtime.gcbits.01+0
	rel 40+4 t=5 type..namedata.*func()-+0
	rel 44+4 t=6 type.*func()+0
type..namedata.M2. SRODATA dupok size=5
	0x0000 01 00 02 4d 32                                   ...M2
type.*"".T SRODATA size=104
	0x0000 08 00 00 00 00 00 00 00 08 00 00 00 00 00 00 00  ................
	0x0010 8b 54 ca 19 01 08 08 36 00 00 00 00 00 00 00 00  .T.....6........
	0x0020 00 00 00 00 00 00 00 00 00 00 00 00 00 00 00 00  ................
	0x0030 00 00 00 00 00 00 00 00 00 00 00 00 02 00 02 00  ................
	0x0040 10 00 00 00 00 00 00 00 00 00 00 00 00 00 00 00  ................
	0x0050 00 00 00 00 00 00 00 00 00 00 00 00 00 00 00 00  ................
	0x0060 00 00 00 00 00 00 00 00                          ........
	rel 24+8 t=1 runtime.algarray+80
	rel 32+8 t=1 runtime.gcbits.01+0
	rel 40+4 t=5 type..namedata.*main.T.+0
	rel 48+8 t=1 type."".T+0
	rel 56+4 t=5 type..importpath."".+0
	rel 72+4 t=5 type..namedata.M1.+0
	rel 76+4 t=24 type.func()+0
	rel 80+4 t=24 "".(*T).M1+0
	rel 84+4 t=24 "".(*T).M1+0
	rel 88+4 t=5 type..namedata.M2.+0
	rel 92+4 t=24 type.func()+0
	rel 96+4 t=24 "".(*T).M2+0
	rel 100+4 t=24 "".(*T).M2+0
runtime.gcbits.02 SRODATA dupok size=1
	0x0000 02                                               .
type..namedata.*func(main.T)- SRODATA dupok size=16
	0x0000 00 00 0d 2a 66 75 6e 63 28 6d 61 69 6e 2e 54 29  ...*func(main.T)
type.*func("".T) SRODATA dupok size=56
	0x0000 08 00 00 00 00 00 00 00 08 00 00 00 00 00 00 00  ................
	0x0010 8d 60 38 6a 00 08 08 36 00 00 00 00 00 00 00 00  .`8j...6........
	0x0020 00 00 00 00 00 00 00 00 00 00 00 00 00 00 00 00  ................
	0x0030 00 00 00 00 00 00 00 00                          ........
	rel 24+8 t=1 runtime.algarray+80
	rel 32+8 t=1 runtime.gcbits.01+0
	rel 40+4 t=5 type..namedata.*func(main.T)-+0
	rel 48+8 t=1 type.func("".T)+0
type.func("".T) SRODATA dupok size=64
	0x0000 08 00 00 00 00 00 00 00 08 00 00 00 00 00 00 00  ................
	0x0010 63 a7 41 a9 02 08 08 33 00 00 00 00 00 00 00 00  c.A....3........
	0x0020 00 00 00 00 00 00 00 00 00 00 00 00 00 00 00 00  ................
	0x0030 01 00 00 00 00 00 00 00 00 00 00 00 00 00 00 00  ................
	rel 24+8 t=1 runtime.algarray+0
	rel 32+8 t=1 runtime.gcbits.01+0
	rel 40+4 t=5 type..namedata.*func(main.T)-+0
	rel 44+4 t=6 type.*func("".T)+0
	rel 56+8 t=1 type."".T+0
type..namedata.n- SRODATA dupok size=4
	0x0000 00 00 01 6e                                      ...n
type..namedata.s- SRODATA dupok size=4
	0x0000 00 00 01 73                                      ...s
type."".T SRODATA size=176
	0x0000 18 00 00 00 00 00 00 00 10 00 00 00 00 00 00 00  ................
	0x0010 b5 a4 ef 44 07 08 08 19 00 00 00 00 00 00 00 00  ...D............
	0x0020 00 00 00 00 00 00 00 00 00 00 00 00 00 00 00 00  ................
	0x0030 00 00 00 00 00 00 00 00 00 00 00 00 00 00 00 00  ................
	0x0040 02 00 00 00 00 00 00 00 02 00 00 00 00 00 00 00  ................
	0x0050 00 00 00 00 02 00 02 00 40 00 00 00 00 00 00 00  ........@.......
	0x0060 00 00 00 00 00 00 00 00 00 00 00 00 00 00 00 00  ................
	0x0070 00 00 00 00 00 00 00 00 00 00 00 00 00 00 00 00  ................
	0x0080 00 00 00 00 00 00 00 00 10 00 00 00 00 00 00 00  ................
	0x0090 00 00 00 00 00 00 00 00 00 00 00 00 00 00 00 00  ................
	0x00a0 00 00 00 00 00 00 00 00 00 00 00 00 00 00 00 00  ................
	rel 24+8 t=1 type..alg."".T+0
	rel 32+8 t=1 runtime.gcbits.02+0
	rel 40+4 t=5 type..namedata.*main.T.+0
	rel 44+4 t=5 type.*"".T+0
	rel 48+8 t=1 type..importpath."".+0
	rel 56+8 t=1 type."".T+96
	rel 80+4 t=5 type..importpath."".+0
	rel 96+8 t=1 type..namedata.n-+0
	rel 104+8 t=1 type.int+0
	rel 120+8 t=1 type..namedata.s-+0
	rel 128+8 t=1 type.string+0
	rel 144+4 t=5 type..namedata.M1.+0
	rel 148+4 t=24 type.func()+0
	rel 152+4 t=24 "".(*T).M1+0
	rel 156+4 t=24 "".T.M1+0
	rel 160+4 t=5 type..namedata.M2.+0
	rel 164+4 t=24 type.func()+0
	rel 168+4 t=24 "".(*T).M2+0
	rel 172+4 t=24 "".T.M2+0
type..namedata.*interface {}- SRODATA dupok size=16
	0x0000 00 00 0d 2a 69 6e 74 65 72 66 61 63 65 20 7b 7d  ...*interface {}
type.*interface {} SRODATA dupok size=56
	0x0000 08 00 00 00 00 00 00 00 08 00 00 00 00 00 00 00  ................
	0x0010 4f 0f 96 9d 00 08 08 36 00 00 00 00 00 00 00 00  O......6........
	0x0020 00 00 00 00 00 00 00 00 00 00 00 00 00 00 00 00  ................
	0x0030 00 00 00 00 00 00 00 00                          ........
	rel 24+8 t=1 runtime.algarray+80
	rel 32+8 t=1 runtime.gcbits.01+0
	rel 40+4 t=5 type..namedata.*interface {}-+0
	rel 48+8 t=1 type.interface {}+0
type.interface {} SRODATA dupok size=80
	0x0000 10 00 00 00 00 00 00 00 10 00 00 00 00 00 00 00  ................
	0x0010 e7 57 a0 18 02 08 08 14 00 00 00 00 00 00 00 00  .W..............
	0x0020 00 00 00 00 00 00 00 00 00 00 00 00 00 00 00 00  ................
	0x0030 00 00 00 00 00 00 00 00 00 00 00 00 00 00 00 00  ................
	0x0040 00 00 00 00 00 00 00 00 00 00 00 00 00 00 00 00  ................
	rel 24+8 t=1 runtime.algarray+144
	rel 32+8 t=1 runtime.gcbits.02+0
	rel 40+4 t=5 type..namedata.*interface {}-+0
	rel 44+4 t=6 type.*interface {}+0
	rel 56+8 t=1 type.interface {}+80
type..namedata.*[]interface {}- SRODATA dupok size=18
	0x0000 00 00 0f 2a 5b 5d 69 6e 74 65 72 66 61 63 65 20  ...*[]interface 
	0x0010 7b 7d                                            {}
type.*[]interface {} SRODATA dupok size=56
	0x0000 08 00 00 00 00 00 00 00 08 00 00 00 00 00 00 00  ................
	0x0010 f3 04 9a e7 00 08 08 36 00 00 00 00 00 00 00 00  .......6........
	0x0020 00 00 00 00 00 00 00 00 00 00 00 00 00 00 00 00  ................
	0x0030 00 00 00 00 00 00 00 00                          ........
	rel 24+8 t=1 runtime.algarray+80
	rel 32+8 t=1 runtime.gcbits.01+0
	rel 40+4 t=5 type..namedata.*[]interface {}-+0
	rel 48+8 t=1 type.[]interface {}+0
type.[]interface {} SRODATA dupok size=56
	0x0000 18 00 00 00 00 00 00 00 08 00 00 00 00 00 00 00  ................
	0x0010 70 93 ea 2f 02 08 08 17 00 00 00 00 00 00 00 00  p../............
	0x0020 00 00 00 00 00 00 00 00 00 00 00 00 00 00 00 00  ................
	0x0030 00 00 00 00 00 00 00 00                          ........
	rel 24+8 t=1 runtime.algarray+0
	rel 32+8 t=1 runtime.gcbits.01+0
	rel 40+4 t=5 type..namedata.*[]interface {}-+0
	rel 44+4 t=6 type.*[]interface {}+0
	rel 48+8 t=1 type.interface {}+0
type..namedata.*[1]interface {}- SRODATA dupok size=19
	0x0000 00 00 10 2a 5b 31 5d 69 6e 74 65 72 66 61 63 65  ...*[1]interface
	0x0010 20 7b 7d                                          {}
type.*[1]interface {} SRODATA dupok size=56
	0x0000 08 00 00 00 00 00 00 00 08 00 00 00 00 00 00 00  ................
	0x0010 bf 03 a8 35 00 08 08 36 00 00 00 00 00 00 00 00  ...5...6........
	0x0020 00 00 00 00 00 00 00 00 00 00 00 00 00 00 00 00  ................
	0x0030 00 00 00 00 00 00 00 00                          ........
	rel 24+8 t=1 runtime.algarray+80
	rel 32+8 t=1 runtime.gcbits.01+0
	rel 40+4 t=5 type..namedata.*[1]interface {}-+0
	rel 48+8 t=1 type.[1]interface {}+0
type.[1]interface {} SRODATA dupok size=72
	0x0000 10 00 00 00 00 00 00 00 10 00 00 00 00 00 00 00  ................
	0x0010 50 91 5b fa 02 08 08 11 00 00 00 00 00 00 00 00  P.[.............
	0x0020 00 00 00 00 00 00 00 00 00 00 00 00 00 00 00 00  ................
	0x0030 00 00 00 00 00 00 00 00 00 00 00 00 00 00 00 00  ................
	0x0040 01 00 00 00 00 00 00 00                          ........
	rel 24+8 t=1 runtime.algarray+144
	rel 32+8 t=1 runtime.gcbits.02+0
	rel 40+4 t=5 type..namedata.*[1]interface {}-+0
	rel 44+4 t=6 type.*[1]interface {}+0
	rel 48+8 t=1 type.interface {}+0
	rel 56+8 t=1 type.[]interface {}+0
""..inittask SNOPTRDATA size=32
	0x0000 00 00 00 00 00 00 00 00 01 00 00 00 00 00 00 00  ................
	0x0010 00 00 00 00 00 00 00 00 00 00 00 00 00 00 00 00  ................
	rel 24+8 t=1 fmt..inittask+0
go.loc."".NonEmptyInterface.M1 SDWARFLOC dupok size=0
go.info."".NonEmptyInterface.M1 SDWARFINFO dupok size=64
	0x0000 03 22 22 2e 4e 6f 6e 45 6d 70 74 79 49 6e 74 65  ."".NonEmptyInte
	0x0010 72 66 61 63 65 2e 4d 31 00 00 00 00 00 00 00 00  rface.M1........
	0x0020 00 00 00 00 00 00 00 00 00 01 9c 00 00 00 00 01  ................
	0x0030 0f 2e 74 68 69 73 00 00 01 00 00 00 00 01 9c 00  ..this..........
	rel 25+8 t=1 "".NonEmptyInterface.M1+0
	rel 33+8 t=1 "".NonEmptyInterface.M1+92
	rel 43+4 t=29 gofile..<autogenerated>+0
	rel 57+4 t=28 go.info."".NonEmptyInterface+0
go.range."".NonEmptyInterface.M1 SDWARFRANGE dupok size=0
go.isstmt."".NonEmptyInterface.M1 SDWARFMISC dupok size=0
	0x0000 04 0f 04 17 03 05 01 0f 02 22 00                 .........".
go.loc."".NonEmptyInterface.M2 SDWARFLOC dupok size=0
go.info."".NonEmptyInterface.M2 SDWARFINFO dupok size=64
	0x0000 03 22 22 2e 4e 6f 6e 45 6d 70 74 79 49 6e 74 65  ."".NonEmptyInte
	0x0010 72 66 61 63 65 2e 4d 32 00 00 00 00 00 00 00 00  rface.M2........
	0x0020 00 00 00 00 00 00 00 00 00 01 9c 00 00 00 00 01  ................
	0x0030 0f 2e 74 68 69 73 00 00 01 00 00 00 00 01 9c 00  ..this..........
	rel 25+8 t=1 "".NonEmptyInterface.M2+0
	rel 33+8 t=1 "".NonEmptyInterface.M2+92
	rel 43+4 t=29 gofile..<autogenerated>+0
	rel 57+4 t=28 go.info."".NonEmptyInterface+0
go.range."".NonEmptyInterface.M2 SDWARFRANGE dupok size=0
go.isstmt."".NonEmptyInterface.M2 SDWARFMISC dupok size=0
	0x0000 04 0f 04 17 03 05 01 0f 02 22 00                 .........".
type..namedata.*main.NonEmptyInterface. SRODATA dupok size=26
	0x0000 01 00 17 2a 6d 61 69 6e 2e 4e 6f 6e 45 6d 70 74  ...*main.NonEmpt
	0x0010 79 49 6e 74 65 72 66 61 63 65                    yInterface
type.*"".NonEmptyInterface SRODATA size=56
	0x0000 08 00 00 00 00 00 00 00 08 00 00 00 00 00 00 00  ................
	0x0010 f6 af 20 d1 00 08 08 36 00 00 00 00 00 00 00 00  .. ....6........
	0x0020 00 00 00 00 00 00 00 00 00 00 00 00 00 00 00 00  ................
	0x0030 00 00 00 00 00 00 00 00                          ........
	rel 24+8 t=1 runtime.algarray+80
	rel 32+8 t=1 runtime.gcbits.01+0
	rel 40+4 t=5 type..namedata.*main.NonEmptyInterface.+0
	rel 48+8 t=1 type."".NonEmptyInterface+0
type."".NonEmptyInterface SRODATA size=112
	0x0000 10 00 00 00 00 00 00 00 10 00 00 00 00 00 00 00  ................
	0x0010 4a 37 15 f3 07 08 08 14 00 00 00 00 00 00 00 00  J7..............
	0x0020 00 00 00 00 00 00 00 00 00 00 00 00 00 00 00 00  ................
	0x0030 00 00 00 00 00 00 00 00 00 00 00 00 00 00 00 00  ................
	0x0040 02 00 00 00 00 00 00 00 02 00 00 00 00 00 00 00  ................
	0x0050 00 00 00 00 00 00 00 00 20 00 00 00 00 00 00 00  ........ .......
	0x0060 00 00 00 00 00 00 00 00 00 00 00 00 00 00 00 00  ................
	rel 24+8 t=1 runtime.algarray+128
	rel 32+8 t=1 runtime.gcbits.02+0
	rel 40+4 t=5 type..namedata.*main.NonEmptyInterface.+0
	rel 44+4 t=5 type.*"".NonEmptyInterface+0
	rel 48+8 t=1 type..importpath."".+0
	rel 56+8 t=1 type."".NonEmptyInterface+96
	rel 80+4 t=5 type..importpath."".+0
	rel 96+4 t=5 type..namedata.M1.+0
	rel 100+4 t=5 type.func()+0
	rel 104+4 t=5 type..namedata.M2.+0
	rel 108+4 t=5 type.func()+0
go.itab.*os.File,io.Writer SRODATA dupok size=32
	0x0000 00 00 00 00 00 00 00 00 00 00 00 00 00 00 00 00  ................
	0x0010 44 b5 f3 33 00 00 00 00 00 00 00 00 00 00 00 00  D..3............
	rel 0+8 t=1 type.io.Writer+0
	rel 8+8 t=1 type.*os.File+0
	rel 24+8 t=1 os.(*File).Write+0
go.itablink.*os.File,io.Writer SRODATA dupok size=8
	0x0000 00 00 00 00 00 00 00 00                          ........
	rel 0+8 t=1 go.itab.*os.File,io.Writer+0
go.itab."".T,"".NonEmptyInterface SRODATA dupok size=40
	0x0000 00 00 00 00 00 00 00 00 00 00 00 00 00 00 00 00  ................
	0x0010 b5 a4 ef 44 00 00 00 00 00 00 00 00 00 00 00 00  ...D............
	0x0020 00 00 00 00 00 00 00 00                          ........
	rel 0+8 t=1 type."".NonEmptyInterface+0
	rel 8+8 t=1 type."".T+0
	rel 24+8 t=1 "".(*T).M1+0
	rel 32+8 t=1 "".(*T).M2+0
go.itablink."".T,"".NonEmptyInterface SRODATA dupok size=8
	0x0000 00 00 00 00 00 00 00 00                          ........
	rel 0+8 t=1 go.itab."".T,"".NonEmptyInterface+0
type..importpath.fmt. SRODATA dupok size=6
	0x0000 00 00 03 66 6d 74                                ...fmt
gclocals·e6397a44f8e1b6e77d0f200b4fba5269 SRODATA dupok size=10
	0x0000 02 00 00 00 03 00 00 00 01 00                    ..........
gclocals·69c1753bd5f81501d95132d08af04464 SRODATA dupok size=8
	0x0000 02 00 00 00 00 00 00 00                          ........
gclocals·9fb7f0986f647f17cb53dda1484e0f7a SRODATA dupok size=10
	0x0000 02 00 00 00 01 00 00 00 00 01                    ..........
gclocals·33cdeccccebe80329f1fdbee7f5874cb SRODATA dupok size=8
	0x0000 01 00 00 00 00 00 00 00                          ........
gclocals·37e3ce3d615de95c262e59007e62bb24 SRODATA dupok size=8
	0x0000 14 00 00 00 00 00 00 00                          ........
gclocals·e2139616e8086a28de836d1bb0eabe93 SRODATA dupok size=128
	0x0000 14 00 00 00 29 00 00 00 00 00 00 00 00 00 00 00  ....)...........
	0x0010 00 40 00 00 00 00 00 40 80 00 00 40 00 40 00 00  .@.....@...@.@..
	0x0020 00 40 00 00 00 00 00 40 00 00 80 00 00 41 00 00  .@.....@.....A..
	0x0030 00 00 00 01 00 00 00 00 10 01 00 00 00 00 10 01  ................
	0x0040 00 04 00 00 00 01 00 00 08 00 00 01 00 10 00 00  ................
	0x0050 00 01 04 00 00 00 00 00 40 00 00 00 02 00 40 00  ........@.....@.
	0x0060 00 00 40 00 00 00 00 00 40 00 10 00 00 00 00 00  ..@.....@.......
	0x0070 00 00 01 00 00 00 00 10 00 00 00 00 01 00 00 00  ................
gclocals·22b1b73b5ba8d4626c2b7611dc91223b SRODATA dupok size=13
	0x0000 05 00 00 00 03 00 00 00 00 01 02 03 05           .............
"".main.stkobj SRODATA dupok size=56
	0x0000 03 00 00 00 00 00 00 00 50 ff ff ff ff ff ff ff  ........P.......
	0x0010 00 00 00 00 00 00 00 00 80 ff ff ff ff ff ff ff  ................
	0x0020 00 00 00 00 00 00 00 00 e8 ff ff ff ff ff ff ff  ................
	0x0030 00 00 00 00 00 00 00 00                          ........
	rel 16+8 t=1 type.[1]interface {}+0
	rel 32+8 t=1 type.[1]interface {}+0
	rel 48+8 t=1 type."".T+0
gclocals·1a65e721a2ccc325b382662e7ffee780 SRODATA dupok size=10
	0x0000 02 00 00 00 01 00 00 00 01 00                    ..........
gclocals·2589ca35330fc0fce83503f4569854a0 SRODATA dupok size=10
	0x0000 02 00 00 00 02 00 00 00 00 00                    ..........
gclocals·98b3fe0fe486cb80582d9e40e05ed306 SRODATA dupok size=13
	0x0000 05 00 00 00 02 00 00 00 03 02 02 00 00           .............
gclocals·c43b6553139b2dad5540cd03018f0ff6 SRODATA dupok size=13
	0x0000 05 00 00 00 04 00 00 00 00 00 04 04 00           .............
gclocals·6e8d7ea4abad763909b26991048ee1fe SRODATA dupok size=12
	0x0000 04 00 00 00 02 00 00 00 00 01 03 02              ............
gclocals·09cf9819fc716118c209c2d2155a3632 SRODATA dupok size=10
	0x0000 02 00 00 00 02 00 00 00 02 00                    ..........
gclocals·568470801006e5c0dc3947ea998fe279 SRODATA dupok size=10
	0x0000 02 00 00 00 02 00 00 00 00 02                    ..........
